   1              		.syntax unified
   2              		.cpu cortex-m4
   3              		.eabi_attribute 27, 3
   4              		.fpu fpv4-sp-d16
   5              		.eabi_attribute 20, 1
   6              		.eabi_attribute 21, 1
   7              		.eabi_attribute 23, 3
   8              		.eabi_attribute 24, 1
   9              		.eabi_attribute 25, 1
  10              		.eabi_attribute 26, 1
  11              		.eabi_attribute 30, 4
  12              		.eabi_attribute 34, 1
  13              		.eabi_attribute 18, 4
  14              		.thumb
  15              		.file	"AeroQuadMain.cpp"
  16              		.text
  17              	.Ltext0:
  18              		.cfi_sections	.debug_frame
  19              		.section	.text.systick_get_count,"ax",%progbits
  20              		.align	1
  21              		.thumb
  22              		.thumb_func
  24              	systick_get_count:
  25              	.LFB53:
  26              		.file 1 "../Libmaple/libmaple/libmaple/systick.h"
   1:../Libmaple/libmaple/libmaple/systick.h **** /******************************************************************************
   2:../Libmaple/libmaple/libmaple/systick.h ****  * The MIT License
   3:../Libmaple/libmaple/libmaple/systick.h ****  *
   4:../Libmaple/libmaple/libmaple/systick.h ****  * Copyright (c) 2010 Perry Hung.
   5:../Libmaple/libmaple/libmaple/systick.h ****  *
   6:../Libmaple/libmaple/libmaple/systick.h ****  * Permission is hereby granted, free of charge, to any person
   7:../Libmaple/libmaple/libmaple/systick.h ****  * obtaining a copy of this software and associated documentation
   8:../Libmaple/libmaple/libmaple/systick.h ****  * files (the "Software"), to deal in the Software without
   9:../Libmaple/libmaple/libmaple/systick.h ****  * restriction, including without limitation the rights to use, copy,
  10:../Libmaple/libmaple/libmaple/systick.h ****  * modify, merge, publish, distribute, sublicense, and/or sell copies
  11:../Libmaple/libmaple/libmaple/systick.h ****  * of the Software, and to permit persons to whom the Software is
  12:../Libmaple/libmaple/libmaple/systick.h ****  * furnished to do so, subject to the following conditions:
  13:../Libmaple/libmaple/libmaple/systick.h ****  *
  14:../Libmaple/libmaple/libmaple/systick.h ****  * The above copyright notice and this permission notice shall be
  15:../Libmaple/libmaple/libmaple/systick.h ****  * included in all copies or substantial portions of the Software.
  16:../Libmaple/libmaple/libmaple/systick.h ****  *
  17:../Libmaple/libmaple/libmaple/systick.h ****  * THE SOFTWARE IS PROVIDED "AS IS", WITHOUT WARRANTY OF ANY KIND,
  18:../Libmaple/libmaple/libmaple/systick.h ****  * EXPRESS OR IMPLIED, INCLUDING BUT NOT LIMITED TO THE WARRANTIES OF
  19:../Libmaple/libmaple/libmaple/systick.h ****  * MERCHANTABILITY, FITNESS FOR A PARTICULAR PURPOSE AND
  20:../Libmaple/libmaple/libmaple/systick.h ****  * NONINFRINGEMENT. IN NO EVENT SHALL THE AUTHORS OR COPYRIGHT HOLDERS
  21:../Libmaple/libmaple/libmaple/systick.h ****  * BE LIABLE FOR ANY CLAIM, DAMAGES OR OTHER LIABILITY, WHETHER IN AN
  22:../Libmaple/libmaple/libmaple/systick.h ****  * ACTION OF CONTRACT, TORT OR OTHERWISE, ARISING FROM, OUT OF OR IN
  23:../Libmaple/libmaple/libmaple/systick.h ****  * CONNECTION WITH THE SOFTWARE OR THE USE OR OTHER DEALINGS IN THE
  24:../Libmaple/libmaple/libmaple/systick.h ****  * SOFTWARE.
  25:../Libmaple/libmaple/libmaple/systick.h ****  *****************************************************************************/
  26:../Libmaple/libmaple/libmaple/systick.h **** 
  27:../Libmaple/libmaple/libmaple/systick.h **** /**
  28:../Libmaple/libmaple/libmaple/systick.h ****  * @file systick.h
  29:../Libmaple/libmaple/libmaple/systick.h ****  *
  30:../Libmaple/libmaple/libmaple/systick.h ****  * @brief Various system timer definitions
  31:../Libmaple/libmaple/libmaple/systick.h ****  */
  32:../Libmaple/libmaple/libmaple/systick.h **** 
  33:../Libmaple/libmaple/libmaple/systick.h **** #ifndef _SYSTICK_H_
  34:../Libmaple/libmaple/libmaple/systick.h **** #define _SYSTICK_H_
  35:../Libmaple/libmaple/libmaple/systick.h **** 
  36:../Libmaple/libmaple/libmaple/systick.h **** #include "libmaple_types.h"
  37:../Libmaple/libmaple/libmaple/systick.h **** #include "util.h"
  38:../Libmaple/libmaple/libmaple/systick.h **** 
  39:../Libmaple/libmaple/libmaple/systick.h **** #ifdef __cplusplus
  40:../Libmaple/libmaple/libmaple/systick.h **** extern "C"{
  41:../Libmaple/libmaple/libmaple/systick.h **** #endif
  42:../Libmaple/libmaple/libmaple/systick.h **** 
  43:../Libmaple/libmaple/libmaple/systick.h **** /** SysTick register map type */
  44:../Libmaple/libmaple/libmaple/systick.h **** typedef struct systick_reg_map {
  45:../Libmaple/libmaple/libmaple/systick.h ****     __io uint32 CSR;            /**< Control and status register */
  46:../Libmaple/libmaple/libmaple/systick.h ****     __io uint32 RVR;            /**< Reload value register */
  47:../Libmaple/libmaple/libmaple/systick.h ****     __io uint32 CNT;            /**< Current value register ("count") */
  48:../Libmaple/libmaple/libmaple/systick.h ****     __io uint32 CVR;            /**< Calibration value register */
  49:../Libmaple/libmaple/libmaple/systick.h **** } systick_reg_map;
  50:../Libmaple/libmaple/libmaple/systick.h **** 
  51:../Libmaple/libmaple/libmaple/systick.h **** /** SysTick register map base pointer */
  52:../Libmaple/libmaple/libmaple/systick.h **** #define SYSTICK_BASE                    ((struct systick_reg_map*)0xE000E010)
  53:../Libmaple/libmaple/libmaple/systick.h **** 
  54:../Libmaple/libmaple/libmaple/systick.h **** /*
  55:../Libmaple/libmaple/libmaple/systick.h ****  * Register bit definitions.
  56:../Libmaple/libmaple/libmaple/systick.h ****  */
  57:../Libmaple/libmaple/libmaple/systick.h **** 
  58:../Libmaple/libmaple/libmaple/systick.h **** /* Control and status register */
  59:../Libmaple/libmaple/libmaple/systick.h **** 
  60:../Libmaple/libmaple/libmaple/systick.h **** #define SYSTICK_CSR_COUNTFLAG           BIT(16)
  61:../Libmaple/libmaple/libmaple/systick.h **** #define SYSTICK_CSR_CLKSOURCE           BIT(2)
  62:../Libmaple/libmaple/libmaple/systick.h **** #define SYSTICK_CSR_CLKSOURCE_EXTERNAL  0
  63:../Libmaple/libmaple/libmaple/systick.h **** #define SYSTICK_CSR_CLKSOURCE_CORE      BIT(2)
  64:../Libmaple/libmaple/libmaple/systick.h **** #define SYSTICK_CSR_TICKINT             BIT(1)
  65:../Libmaple/libmaple/libmaple/systick.h **** #define SYSTICK_CSR_TICKINT_PEND        BIT(1)
  66:../Libmaple/libmaple/libmaple/systick.h **** #define SYSTICK_CSR_TICKINT_NO_PEND     0
  67:../Libmaple/libmaple/libmaple/systick.h **** #define SYSTICK_CSR_ENABLE              BIT(0)
  68:../Libmaple/libmaple/libmaple/systick.h **** #define SYSTICK_CSR_ENABLE_MULTISHOT    BIT(0)
  69:../Libmaple/libmaple/libmaple/systick.h **** #define SYSTICK_CSR_ENABLE_DISABLED     0
  70:../Libmaple/libmaple/libmaple/systick.h **** 
  71:../Libmaple/libmaple/libmaple/systick.h **** /* Calibration value register */
  72:../Libmaple/libmaple/libmaple/systick.h **** 
  73:../Libmaple/libmaple/libmaple/systick.h **** #define SYSTICK_CVR_NOREF               BIT(31)
  74:../Libmaple/libmaple/libmaple/systick.h **** #define SYSTICK_CVR_SKEW                BIT(30)
  75:../Libmaple/libmaple/libmaple/systick.h **** #define SYSTICK_CVR_TENMS               0xFFFFFF
  76:../Libmaple/libmaple/libmaple/systick.h **** 
  77:../Libmaple/libmaple/libmaple/systick.h **** /** System elapsed time, in milliseconds */
  78:../Libmaple/libmaple/libmaple/systick.h **** extern volatile uint32 systick_uptime_millis;
  79:../Libmaple/libmaple/libmaple/systick.h **** 
  80:../Libmaple/libmaple/libmaple/systick.h **** /**
  81:../Libmaple/libmaple/libmaple/systick.h ****  * @brief Returns the system uptime, in milliseconds.
  82:../Libmaple/libmaple/libmaple/systick.h ****  */
  83:../Libmaple/libmaple/libmaple/systick.h **** static inline uint32 systick_uptime(void) {
  84:../Libmaple/libmaple/libmaple/systick.h ****     return systick_uptime_millis;
  85:../Libmaple/libmaple/libmaple/systick.h **** }
  86:../Libmaple/libmaple/libmaple/systick.h **** 
  87:../Libmaple/libmaple/libmaple/systick.h **** 
  88:../Libmaple/libmaple/libmaple/systick.h **** void systick_init(uint32 reload_val);
  89:../Libmaple/libmaple/libmaple/systick.h **** void systick_disable();
  90:../Libmaple/libmaple/libmaple/systick.h **** void systick_enable();
  91:../Libmaple/libmaple/libmaple/systick.h **** 
  92:../Libmaple/libmaple/libmaple/systick.h **** /**
  93:../Libmaple/libmaple/libmaple/systick.h ****  * @brief Returns the current value of the SysTick counter.
  94:../Libmaple/libmaple/libmaple/systick.h ****  */
  95:../Libmaple/libmaple/libmaple/systick.h **** static inline uint32 systick_get_count(void) {
  27              		.loc 1 95 0
  28              		.cfi_startproc
  29              		@ args = 0, pretend = 0, frame = 0
  30              		@ frame_needed = 0, uses_anonymous_args = 0
  31              		@ link register save eliminated.
  96:../Libmaple/libmaple/libmaple/systick.h ****     return SYSTICK_BASE->CNT;
  32              		.loc 1 96 0
  33 0000 014B     		ldr	r3, .L2
  34 0002 9868     		ldr	r0, [r3, #8]
  97:../Libmaple/libmaple/libmaple/systick.h **** }
  35              		.loc 1 97 0
  36 0004 7047     		bx	lr
  37              	.L3:
  38 0006 00BF     		.align	2
  39              	.L2:
  40 0008 10E000E0 		.word	-536813552
  41              		.cfi_endproc
  42              	.LFE53:
  44              		.section	.text._ZL6millisv,"ax",%progbits
  45              		.align	1
  46              		.thumb
  47              		.thumb_func
  49              	_ZL6millisv:
  50              	.LFB55:
  51              		.file 2 "../Libmaple/libmaple/wirish/wirish_time.h"
   1:../Libmaple/libmaple/wirish/wirish_time.h **** /******************************************************************************
   2:../Libmaple/libmaple/wirish/wirish_time.h ****  * The MIT License
   3:../Libmaple/libmaple/wirish/wirish_time.h ****  *
   4:../Libmaple/libmaple/wirish/wirish_time.h ****  * Copyright (c) 2010 Perry Hung.
   5:../Libmaple/libmaple/wirish/wirish_time.h ****  *
   6:../Libmaple/libmaple/wirish/wirish_time.h ****  * Permission is hereby granted, free of charge, to any person
   7:../Libmaple/libmaple/wirish/wirish_time.h ****  * obtaining a copy of this software and associated documentation
   8:../Libmaple/libmaple/wirish/wirish_time.h ****  * files (the "Software"), to deal in the Software without
   9:../Libmaple/libmaple/wirish/wirish_time.h ****  * restriction, including without limitation the rights to use, copy,
  10:../Libmaple/libmaple/wirish/wirish_time.h ****  * modify, merge, publish, distribute, sublicense, and/or sell copies
  11:../Libmaple/libmaple/wirish/wirish_time.h ****  * of the Software, and to permit persons to whom the Software is
  12:../Libmaple/libmaple/wirish/wirish_time.h ****  * furnished to do so, subject to the following conditions:
  13:../Libmaple/libmaple/wirish/wirish_time.h ****  *
  14:../Libmaple/libmaple/wirish/wirish_time.h ****  * The above copyright notice and this permission notice shall be
  15:../Libmaple/libmaple/wirish/wirish_time.h ****  * included in all copies or substantial portions of the Software.
  16:../Libmaple/libmaple/wirish/wirish_time.h ****  *
  17:../Libmaple/libmaple/wirish/wirish_time.h ****  * THE SOFTWARE IS PROVIDED "AS IS", WITHOUT WARRANTY OF ANY KIND,
  18:../Libmaple/libmaple/wirish/wirish_time.h ****  * EXPRESS OR IMPLIED, INCLUDING BUT NOT LIMITED TO THE WARRANTIES OF
  19:../Libmaple/libmaple/wirish/wirish_time.h ****  * MERCHANTABILITY, FITNESS FOR A PARTICULAR PURPOSE AND
  20:../Libmaple/libmaple/wirish/wirish_time.h ****  * NONINFRINGEMENT. IN NO EVENT SHALL THE AUTHORS OR COPYRIGHT HOLDERS
  21:../Libmaple/libmaple/wirish/wirish_time.h ****  * BE LIABLE FOR ANY CLAIM, DAMAGES OR OTHER LIABILITY, WHETHER IN AN
  22:../Libmaple/libmaple/wirish/wirish_time.h ****  * ACTION OF CONTRACT, TORT OR OTHERWISE, ARISING FROM, OUT OF OR IN
  23:../Libmaple/libmaple/wirish/wirish_time.h ****  * CONNECTION WITH THE SOFTWARE OR THE USE OR OTHER DEALINGS IN THE
  24:../Libmaple/libmaple/wirish/wirish_time.h ****  * SOFTWARE.
  25:../Libmaple/libmaple/wirish/wirish_time.h ****  *****************************************************************************/
  26:../Libmaple/libmaple/wirish/wirish_time.h **** 
  27:../Libmaple/libmaple/wirish/wirish_time.h **** /**
  28:../Libmaple/libmaple/wirish/wirish_time.h ****  * @file wirish_time.h
  29:../Libmaple/libmaple/wirish/wirish_time.h ****  * @brief Timing and delay functions.
  30:../Libmaple/libmaple/wirish/wirish_time.h ****  */
  31:../Libmaple/libmaple/wirish/wirish_time.h **** 
  32:../Libmaple/libmaple/wirish/wirish_time.h **** #ifndef __WIRISH_TIME_H_
  33:../Libmaple/libmaple/wirish/wirish_time.h **** #define __WIRISH_TIME_H_
  34:../Libmaple/libmaple/wirish/wirish_time.h **** 
  35:../Libmaple/libmaple/wirish/wirish_time.h **** #include "libmaple.h"
  36:../Libmaple/libmaple/wirish/wirish_time.h **** #include "nvic.h"
  37:../Libmaple/libmaple/wirish/wirish_time.h **** #include "systick.h"
  38:../Libmaple/libmaple/wirish/wirish_time.h **** #include "boards.h"
  39:../Libmaple/libmaple/wirish/wirish_time.h **** 
  40:../Libmaple/libmaple/wirish/wirish_time.h **** #define US_PER_MS               1000
  41:../Libmaple/libmaple/wirish/wirish_time.h **** 
  42:../Libmaple/libmaple/wirish/wirish_time.h **** /**
  43:../Libmaple/libmaple/wirish/wirish_time.h ****  * Returns time (in milliseconds) since the beginning of program
  44:../Libmaple/libmaple/wirish/wirish_time.h ****  * execution. On overflow, restarts at 0.
  45:../Libmaple/libmaple/wirish/wirish_time.h ****  * @see micros()
  46:../Libmaple/libmaple/wirish/wirish_time.h ****  */
  47:../Libmaple/libmaple/wirish/wirish_time.h **** static inline uint32 millis(void) {
  52              		.loc 2 47 0
  53              		.cfi_startproc
  54              		@ args = 0, pretend = 0, frame = 0
  55              		@ frame_needed = 0, uses_anonymous_args = 0
  56              		@ link register save eliminated.
  57              	.LBB5:
  58              	.LBB6:
  84:../Libmaple/libmaple/libmaple/systick.h ****     return systick_uptime_millis;
  59              		.loc 1 84 0
  60 0000 014B     		ldr	r3, .L5
  61 0002 1868     		ldr	r0, [r3, #0]
  62              	.LBE6:
  63              	.LBE5:
  48:../Libmaple/libmaple/wirish/wirish_time.h ****     return systick_uptime();
  49:../Libmaple/libmaple/wirish/wirish_time.h **** }
  64              		.loc 2 49 0
  65 0004 7047     		bx	lr
  66              	.L6:
  67 0006 00BF     		.align	2
  68              	.L5:
  69 0008 00000000 		.word	systick_uptime_millis
  70              		.cfi_endproc
  71              	.LFE55:
  73              		.section	.text._ZL6microsv,"ax",%progbits
  74              		.align	1
  75              		.thumb
  76              		.thumb_func
  78              	_ZL6microsv:
  79              	.LFB56:
  50:../Libmaple/libmaple/wirish/wirish_time.h **** 
  51:../Libmaple/libmaple/wirish/wirish_time.h **** /**
  52:../Libmaple/libmaple/wirish/wirish_time.h ****  * Returns time (in microseconds) since the beginning of program
  53:../Libmaple/libmaple/wirish/wirish_time.h ****  * execution.  On overflow, restarts at 0.
  54:../Libmaple/libmaple/wirish/wirish_time.h ****  * @see millis()
  55:../Libmaple/libmaple/wirish/wirish_time.h ****  */
  56:../Libmaple/libmaple/wirish/wirish_time.h **** static inline uint32 micros(void) {
  80              		.loc 2 56 0
  81              		.cfi_startproc
  82              		@ args = 0, pretend = 0, frame = 0
  83              		@ frame_needed = 0, uses_anonymous_args = 0
  84 0000 38B5     		push	{r3, r4, r5, lr}
  85              	.LCFI0:
  86              		.cfi_def_cfa_offset 16
  87              		.cfi_offset 14, -4
  88              		.cfi_offset 5, -8
  89              		.cfi_offset 4, -12
  90              		.cfi_offset 3, -16
  91              	.L8:
  92              	.LBB10:
  57:../Libmaple/libmaple/wirish/wirish_time.h ****     uint32 ms;
  58:../Libmaple/libmaple/wirish/wirish_time.h ****     uint32 cycle_cnt;
  59:../Libmaple/libmaple/wirish/wirish_time.h ****     uint32 res;
  60:../Libmaple/libmaple/wirish/wirish_time.h **** 
  61:../Libmaple/libmaple/wirish/wirish_time.h ****     do {
  62:../Libmaple/libmaple/wirish/wirish_time.h ****         ms = millis();
  93              		.loc 2 62 0 discriminator 1
  94 0002 FFF7FEFF 		bl	_ZL6millisv
  95 0006 0446     		mov	r4, r0
  96              	.LVL0:
  63:../Libmaple/libmaple/wirish/wirish_time.h ****         cycle_cnt = systick_get_count();
  97              		.loc 2 63 0 discriminator 1
  98 0008 FFF7FEFF 		bl	systick_get_count
  99              	.LVL1:
 100 000c 0546     		mov	r5, r0
  64:../Libmaple/libmaple/wirish/wirish_time.h ****         asm volatile("nop"); //allow interrupt to fire
 101              		.loc 2 64 0 discriminator 1
 102              	@ 64 "../Libmaple/libmaple/wirish/wirish_time.h" 1
 103 000e 00BF     		nop
 104              	@ 0 "" 2
  65:../Libmaple/libmaple/wirish/wirish_time.h ****         asm volatile("nop");
 105              		.loc 2 65 0 discriminator 1
 106              	@ 65 "../Libmaple/libmaple/wirish/wirish_time.h" 1
 107 0010 00BF     		nop
 108              	@ 0 "" 2
  66:../Libmaple/libmaple/wirish/wirish_time.h ****     } while (ms != millis());
 109              		.loc 2 66 0 discriminator 1
 110              		.thumb
 111 0012 FFF7FEFF 		bl	_ZL6millisv
  61:../Libmaple/libmaple/wirish/wirish_time.h ****     do {
 112              		.loc 2 61 0 discriminator 1
 113 0016 8442     		cmp	r4, r0
 114 0018 F3D1     		bne	.L8
 115              	.LBB11:
 116              	.LBB12:
  98:../Libmaple/libmaple/libmaple/systick.h **** 
  99:../Libmaple/libmaple/libmaple/systick.h **** /**
 100:../Libmaple/libmaple/libmaple/systick.h ****  * @brief Check for underflow.
 101:../Libmaple/libmaple/libmaple/systick.h ****  *
 102:../Libmaple/libmaple/libmaple/systick.h ****  * This function returns 1 if the SysTick timer has counted to 0 since
 103:../Libmaple/libmaple/libmaple/systick.h ****  * the last time it was called.  However, any reads of any part of the
 104:../Libmaple/libmaple/libmaple/systick.h ****  * SysTick Control and Status Register SYSTICK_BASE->CSR will
 105:../Libmaple/libmaple/libmaple/systick.h ****  * interfere with this functionality.  See the ARM Cortex M3 Technical
 106:../Libmaple/libmaple/libmaple/systick.h ****  * Reference Manual for more details (e.g. Table 8-3 in revision r1p1).
 107:../Libmaple/libmaple/libmaple/systick.h ****  */
 108:../Libmaple/libmaple/libmaple/systick.h **** static inline uint32 systick_check_underflow(void) {
 109:../Libmaple/libmaple/libmaple/systick.h ****     return SYSTICK_BASE->CSR & SYSTICK_CSR_COUNTFLAG;
 117              		.loc 1 109 0
 118 001a 0948     		ldr	r0, .L11
 119 001c 0368     		ldr	r3, [r0, #0]
 120              	.LBE12:
 121              	.LBE11:
  67:../Libmaple/libmaple/wirish/wirish_time.h **** 
  68:../Libmaple/libmaple/wirish/wirish_time.h ****     if(systick_check_underflow()) {
 122              		.loc 2 68 0
 123 001e DB03     		lsls	r3, r3, #15
 124 0020 03D5     		bpl	.L9
  69:../Libmaple/libmaple/wirish/wirish_time.h ****     	ms++;
  70:../Libmaple/libmaple/wirish/wirish_time.h ****     	cycle_cnt = systick_get_count();
 125              		.loc 2 70 0
 126 0022 FFF7FEFF 		bl	systick_get_count
  69:../Libmaple/libmaple/wirish/wirish_time.h ****     	ms++;
 127              		.loc 2 69 0
 128 0026 0134     		adds	r4, r4, #1
 129              	.LVL2:
 130              		.loc 2 70 0
 131 0028 0546     		mov	r5, r0
 132              	.LVL3:
 133              	.L9:
  71:../Libmaple/libmaple/wirish/wirish_time.h ****     }
  72:../Libmaple/libmaple/wirish/wirish_time.h **** 
  73:../Libmaple/libmaple/wirish/wirish_time.h ****     /* SYSTICK_RELOAD_VAL is 1 less than the number of cycles it
  74:../Libmaple/libmaple/wirish/wirish_time.h ****        actually takes to complete a SysTick reload */
  75:../Libmaple/libmaple/wirish/wirish_time.h ****     res = (ms * US_PER_MS) +
  76:../Libmaple/libmaple/wirish/wirish_time.h ****         (SYSTICK_RELOAD_VAL + 1 - cycle_cnt) / CYCLES_PER_MICROSECOND;
 134              		.loc 2 76 0
 135 002a C5F52435 		rsb	r5, r5, #167936
 136              	.LVL4:
 137 002e 4035     		adds	r5, r5, #64
 138 0030 A822     		movs	r2, #168
 139 0032 B5FBF2F5 		udiv	r5, r5, r2
 140              	.LBE10:
  77:../Libmaple/libmaple/wirish/wirish_time.h **** 
  78:../Libmaple/libmaple/wirish/wirish_time.h ****     return res;
  79:../Libmaple/libmaple/wirish/wirish_time.h **** }
 141              		.loc 2 79 0
 142 0036 4FF47A71 		mov	r1, #1000
 143 003a 01FB0450 		mla	r0, r1, r4, r5
 144 003e 38BD     		pop	{r3, r4, r5, pc}
 145              	.L12:
 146              		.align	2
 147              	.L11:
 148 0040 10E000E0 		.word	-536813552
 149              		.cfi_endproc
 150              	.LFE56:
 152              		.section	.text.timer_set_prescaler.isra.0,"ax",%progbits
 153              		.align	1
 154              		.thumb
 155              		.thumb_func
 157              	timer_set_prescaler.isra.0:
 158              	.LFB249:
 159              		.file 3 "../Libmaple/libmaple/libmaple/timer.h"
   1:../Libmaple/libmaple/libmaple/timer.h **** /******************************************************************************
   2:../Libmaple/libmaple/libmaple/timer.h ****  * The MIT License
   3:../Libmaple/libmaple/libmaple/timer.h ****  *
   4:../Libmaple/libmaple/libmaple/timer.h ****  * Copyright (c) 2011 LeafLabs, LLC.
   5:../Libmaple/libmaple/libmaple/timer.h ****  *
   6:../Libmaple/libmaple/libmaple/timer.h ****  * Permission is hereby granted, free of charge, to any person
   7:../Libmaple/libmaple/libmaple/timer.h ****  * obtaining a copy of this software and associated documentation
   8:../Libmaple/libmaple/libmaple/timer.h ****  * files (the "Software"), to deal in the Software without
   9:../Libmaple/libmaple/libmaple/timer.h ****  * restriction, including without limitation the rights to use, copy,
  10:../Libmaple/libmaple/libmaple/timer.h ****  * modify, merge, publish, distribute, sublicense, and/or sell copies
  11:../Libmaple/libmaple/libmaple/timer.h ****  * of the Software, and to permit persons to whom the Software is
  12:../Libmaple/libmaple/libmaple/timer.h ****  * furnished to do so, subject to the following conditions:
  13:../Libmaple/libmaple/libmaple/timer.h ****  *
  14:../Libmaple/libmaple/libmaple/timer.h ****  * The above copyright notice and this permission notice shall be
  15:../Libmaple/libmaple/libmaple/timer.h ****  * included in all copies or substantial portions of the Software.
  16:../Libmaple/libmaple/libmaple/timer.h ****  *
  17:../Libmaple/libmaple/libmaple/timer.h ****  * THE SOFTWARE IS PROVIDED "AS IS", WITHOUT WARRANTY OF ANY KIND,
  18:../Libmaple/libmaple/libmaple/timer.h ****  * EXPRESS OR IMPLIED, INCLUDING BUT NOT LIMITED TO THE WARRANTIES OF
  19:../Libmaple/libmaple/libmaple/timer.h ****  * MERCHANTABILITY, FITNESS FOR A PARTICULAR PURPOSE AND
  20:../Libmaple/libmaple/libmaple/timer.h ****  * NONINFRINGEMENT. IN NO EVENT SHALL THE AUTHORS OR COPYRIGHT HOLDERS
  21:../Libmaple/libmaple/libmaple/timer.h ****  * BE LIABLE FOR ANY CLAIM, DAMAGES OR OTHER LIABILITY, WHETHER IN AN
  22:../Libmaple/libmaple/libmaple/timer.h ****  * ACTION OF CONTRACT, TORT OR OTHERWISE, ARISING FROM, OUT OF OR IN
  23:../Libmaple/libmaple/libmaple/timer.h ****  * CONNECTION WITH THE SOFTWARE OR THE USE OR OTHER DEALINGS IN THE
  24:../Libmaple/libmaple/libmaple/timer.h ****  * SOFTWARE.
  25:../Libmaple/libmaple/libmaple/timer.h ****  *****************************************************************************/
  26:../Libmaple/libmaple/libmaple/timer.h **** 
  27:../Libmaple/libmaple/libmaple/timer.h **** /**
  28:../Libmaple/libmaple/libmaple/timer.h ****  * @file   timer.h
  29:../Libmaple/libmaple/libmaple/timer.h ****  * @author Marti Bolivar <mbolivar@leaflabs.com>
  30:../Libmaple/libmaple/libmaple/timer.h ****  * @brief  New-style timer interface.
  31:../Libmaple/libmaple/libmaple/timer.h ****  *
  32:../Libmaple/libmaple/libmaple/timer.h ****  * Replaces old timers.h implementation.
  33:../Libmaple/libmaple/libmaple/timer.h ****  */
  34:../Libmaple/libmaple/libmaple/timer.h **** 
  35:../Libmaple/libmaple/libmaple/timer.h **** #ifndef _TIMERS_H_
  36:../Libmaple/libmaple/libmaple/timer.h **** #define _TIMERS_H_
  37:../Libmaple/libmaple/libmaple/timer.h **** 
  38:../Libmaple/libmaple/libmaple/timer.h **** #include "libmaple.h"
  39:../Libmaple/libmaple/libmaple/timer.h **** #include "rcc.h"
  40:../Libmaple/libmaple/libmaple/timer.h **** #include "nvic.h"
  41:../Libmaple/libmaple/libmaple/timer.h **** #include "bitband.h"
  42:../Libmaple/libmaple/libmaple/timer.h **** 
  43:../Libmaple/libmaple/libmaple/timer.h **** #ifdef __cplusplus
  44:../Libmaple/libmaple/libmaple/timer.h **** extern "C"{
  45:../Libmaple/libmaple/libmaple/timer.h **** #endif
  46:../Libmaple/libmaple/libmaple/timer.h **** 
  47:../Libmaple/libmaple/libmaple/timer.h **** /*
  48:../Libmaple/libmaple/libmaple/timer.h ****  * Register maps and devices
  49:../Libmaple/libmaple/libmaple/timer.h ****  */
  50:../Libmaple/libmaple/libmaple/timer.h **** 
  51:../Libmaple/libmaple/libmaple/timer.h **** /** Advanced control timer register map type */
  52:../Libmaple/libmaple/libmaple/timer.h **** typedef struct timer_adv_reg_map {
  53:../Libmaple/libmaple/libmaple/timer.h ****     __io uint32 CR1;            /**< Control register 1 */
  54:../Libmaple/libmaple/libmaple/timer.h ****     __io uint32 CR2;            /**< Control register 2 */
  55:../Libmaple/libmaple/libmaple/timer.h ****     __io uint32 SMCR;           /**< Slave mode control register */
  56:../Libmaple/libmaple/libmaple/timer.h ****     __io uint32 DIER;           /**< DMA/Interrupt enable register */
  57:../Libmaple/libmaple/libmaple/timer.h ****     __io uint32 SR;             /**< Status register */
  58:../Libmaple/libmaple/libmaple/timer.h ****     __io uint32 EGR;            /**< Event generation register  */
  59:../Libmaple/libmaple/libmaple/timer.h ****     __io uint32 CCMR1;          /**< Capture/compare mode register 1 */
  60:../Libmaple/libmaple/libmaple/timer.h ****     __io uint32 CCMR2;          /**< Capture/compare mode register 2 */
  61:../Libmaple/libmaple/libmaple/timer.h ****     __io uint32 CCER;           /**< Capture/compare enable register */
  62:../Libmaple/libmaple/libmaple/timer.h ****     __io uint32 CNT;            /**< Counter */
  63:../Libmaple/libmaple/libmaple/timer.h ****     __io uint32 PSC;            /**< Prescaler */
  64:../Libmaple/libmaple/libmaple/timer.h ****     __io uint32 ARR;            /**< Auto-reload register */
  65:../Libmaple/libmaple/libmaple/timer.h ****     __io uint32 RCR;            /**< Repetition counter register */
  66:../Libmaple/libmaple/libmaple/timer.h ****     __io uint32 CCR1;           /**< Capture/compare register 1 */
  67:../Libmaple/libmaple/libmaple/timer.h ****     __io uint32 CCR2;           /**< Capture/compare register 2 */
  68:../Libmaple/libmaple/libmaple/timer.h ****     __io uint32 CCR3;           /**< Capture/compare register 3 */
  69:../Libmaple/libmaple/libmaple/timer.h ****     __io uint32 CCR4;           /**< Capture/compare register 4 */
  70:../Libmaple/libmaple/libmaple/timer.h ****     __io uint32 BDTR;           /**< Break and dead-time register */
  71:../Libmaple/libmaple/libmaple/timer.h ****     __io uint32 DCR;            /**< DMA control register */
  72:../Libmaple/libmaple/libmaple/timer.h ****     __io uint32 DMAR;           /**< DMA address for full transfer */
  73:../Libmaple/libmaple/libmaple/timer.h **** } timer_adv_reg_map;
  74:../Libmaple/libmaple/libmaple/timer.h **** 
  75:../Libmaple/libmaple/libmaple/timer.h **** /** General purpose timer register map type */
  76:../Libmaple/libmaple/libmaple/timer.h **** typedef struct timer_gen_reg_map {
  77:../Libmaple/libmaple/libmaple/timer.h ****     __io uint32 CR1;            /**< Control register 1 */
  78:../Libmaple/libmaple/libmaple/timer.h ****     __io uint32 CR2;            /**< Control register 2 */
  79:../Libmaple/libmaple/libmaple/timer.h ****     __io uint32 SMCR;           /**< Slave mode control register */
  80:../Libmaple/libmaple/libmaple/timer.h ****     __io uint32 DIER;           /**< DMA/Interrupt enable register */
  81:../Libmaple/libmaple/libmaple/timer.h ****     __io uint32 SR;             /**< Status register */
  82:../Libmaple/libmaple/libmaple/timer.h ****     __io uint32 EGR;            /**< Event generation register  */
  83:../Libmaple/libmaple/libmaple/timer.h ****     __io uint32 CCMR1;          /**< Capture/compare mode register 1 */
  84:../Libmaple/libmaple/libmaple/timer.h ****     __io uint32 CCMR2;          /**< Capture/compare mode register 2 */
  85:../Libmaple/libmaple/libmaple/timer.h ****     __io uint32 CCER;           /**< Capture/compare enable register */
  86:../Libmaple/libmaple/libmaple/timer.h ****     __io uint32 CNT;            /**< Counter */
  87:../Libmaple/libmaple/libmaple/timer.h ****     __io uint32 PSC;            /**< Prescaler */
  88:../Libmaple/libmaple/libmaple/timer.h ****     __io uint32 ARR;            /**< Auto-reload register */
  89:../Libmaple/libmaple/libmaple/timer.h ****     const uint32 RESERVED1;     /**< Reserved */
  90:../Libmaple/libmaple/libmaple/timer.h ****     __io uint32 CCR1;           /**< Capture/compare register 1 */
  91:../Libmaple/libmaple/libmaple/timer.h ****     __io uint32 CCR2;           /**< Capture/compare register 2 */
  92:../Libmaple/libmaple/libmaple/timer.h ****     __io uint32 CCR3;           /**< Capture/compare register 3 */
  93:../Libmaple/libmaple/libmaple/timer.h ****     __io uint32 CCR4;           /**< Capture/compare register 4 */
  94:../Libmaple/libmaple/libmaple/timer.h ****     const uint32 RESERVED2;     /**< Reserved */
  95:../Libmaple/libmaple/libmaple/timer.h ****     __io uint32 DCR;            /**< DMA control register */
  96:../Libmaple/libmaple/libmaple/timer.h ****     __io uint32 DMAR;           /**< DMA address for full transfer */
  97:../Libmaple/libmaple/libmaple/timer.h **** } timer_gen_reg_map;
  98:../Libmaple/libmaple/libmaple/timer.h **** 
  99:../Libmaple/libmaple/libmaple/timer.h **** /** Basic timer register map type */
 100:../Libmaple/libmaple/libmaple/timer.h **** typedef struct timer_bas_reg_map {
 101:../Libmaple/libmaple/libmaple/timer.h ****     __io uint32 CR1;            /**< Control register 1 */
 102:../Libmaple/libmaple/libmaple/timer.h ****     __io uint32 CR2;            /**< Control register 2 */
 103:../Libmaple/libmaple/libmaple/timer.h ****     const uint32 RESERVED1;     /**< Reserved */
 104:../Libmaple/libmaple/libmaple/timer.h ****     __io uint32 DIER;           /**< DMA/Interrupt enable register */
 105:../Libmaple/libmaple/libmaple/timer.h ****     __io uint32 SR;             /**< Status register */
 106:../Libmaple/libmaple/libmaple/timer.h ****     __io uint32 EGR;            /**< Event generation register  */
 107:../Libmaple/libmaple/libmaple/timer.h ****     const uint32 RESERVED2;     /**< Reserved */
 108:../Libmaple/libmaple/libmaple/timer.h ****     const uint32 RESERVED3;     /**< Reserved */
 109:../Libmaple/libmaple/libmaple/timer.h ****     const uint32 RESERVED4;     /**< Reserved */
 110:../Libmaple/libmaple/libmaple/timer.h ****     __io uint32 CNT;            /**< Counter */
 111:../Libmaple/libmaple/libmaple/timer.h ****     __io uint32 PSC;            /**< Prescaler */
 112:../Libmaple/libmaple/libmaple/timer.h ****     __io uint32 ARR;            /**< Auto-reload register */
 113:../Libmaple/libmaple/libmaple/timer.h **** } timer_bas_reg_map;
 114:../Libmaple/libmaple/libmaple/timer.h **** 
 115:../Libmaple/libmaple/libmaple/timer.h **** 
 116:../Libmaple/libmaple/libmaple/timer.h **** #ifdef STM32F2
 117:../Libmaple/libmaple/libmaple/timer.h ****   /** Timer 1 register map base pointer */
 118:../Libmaple/libmaple/libmaple/timer.h ****   #define TIMER1_BASE        ((struct timer_adv_reg_map*)0x40010000)
 119:../Libmaple/libmaple/libmaple/timer.h **** #else
 120:../Libmaple/libmaple/libmaple/timer.h ****   /** Timer 1 register map base pointer */
 121:../Libmaple/libmaple/libmaple/timer.h ****   #define TIMER1_BASE        ((struct timer_adv_reg_map*)0x40012C00)
 122:../Libmaple/libmaple/libmaple/timer.h **** #endif
 123:../Libmaple/libmaple/libmaple/timer.h **** /** Timer 2 register map base pointer */
 124:../Libmaple/libmaple/libmaple/timer.h **** #define TIMER2_BASE        ((struct timer_gen_reg_map*)0x40000000)
 125:../Libmaple/libmaple/libmaple/timer.h **** /** Timer 3 register map base pointer */
 126:../Libmaple/libmaple/libmaple/timer.h **** #define TIMER3_BASE        ((struct timer_gen_reg_map*)0x40000400)
 127:../Libmaple/libmaple/libmaple/timer.h **** /** Timer 4 register map base pointer */
 128:../Libmaple/libmaple/libmaple/timer.h **** #define TIMER4_BASE        ((struct timer_gen_reg_map*)0x40000800)
 129:../Libmaple/libmaple/libmaple/timer.h **** #ifdef STM32_HIGH_DENSITY
 130:../Libmaple/libmaple/libmaple/timer.h **** /** Timer 5 register map base pointer */
 131:../Libmaple/libmaple/libmaple/timer.h **** #define TIMER5_BASE        ((struct timer_gen_reg_map*)0x40000C00)
 132:../Libmaple/libmaple/libmaple/timer.h **** /** Timer 6 register map base pointer */
 133:../Libmaple/libmaple/libmaple/timer.h **** #define TIMER6_BASE        ((struct timer_bas_reg_map*)0x40001000)
 134:../Libmaple/libmaple/libmaple/timer.h **** /** Timer 7 register map base pointer */
 135:../Libmaple/libmaple/libmaple/timer.h **** #define TIMER7_BASE        ((struct timer_bas_reg_map*)0x40001400)
 136:../Libmaple/libmaple/libmaple/timer.h **** 
 137:../Libmaple/libmaple/libmaple/timer.h **** #ifdef STM32F2
 138:../Libmaple/libmaple/libmaple/timer.h ****   /** Timer 8 register map base pointer */
 139:../Libmaple/libmaple/libmaple/timer.h ****   #define TIMER8_BASE        ((struct timer_adv_reg_map*)0x40010400)
 140:../Libmaple/libmaple/libmaple/timer.h **** #else
 141:../Libmaple/libmaple/libmaple/timer.h ****   /** Timer 8 register map base pointer */
 142:../Libmaple/libmaple/libmaple/timer.h ****   #define TIMER8_BASE        ((struct timer_adv_reg_map*)0x40013400)
 143:../Libmaple/libmaple/libmaple/timer.h **** #endif
 144:../Libmaple/libmaple/libmaple/timer.h **** #endif
 145:../Libmaple/libmaple/libmaple/timer.h **** 
 146:../Libmaple/libmaple/libmaple/timer.h **** /*
 147:../Libmaple/libmaple/libmaple/timer.h ****  * Timer devices
 148:../Libmaple/libmaple/libmaple/timer.h ****  */
 149:../Libmaple/libmaple/libmaple/timer.h **** 
 150:../Libmaple/libmaple/libmaple/timer.h **** /**
 151:../Libmaple/libmaple/libmaple/timer.h ****  * @brief Timer register map type.
 152:../Libmaple/libmaple/libmaple/timer.h ****  *
 153:../Libmaple/libmaple/libmaple/timer.h ****  * Just holds a pointer to the correct type of register map, based on
 154:../Libmaple/libmaple/libmaple/timer.h ****  * the timer's type.
 155:../Libmaple/libmaple/libmaple/timer.h ****  */
 156:../Libmaple/libmaple/libmaple/timer.h **** typedef union timer_reg_map {
 157:../Libmaple/libmaple/libmaple/timer.h ****     timer_adv_reg_map *adv;     /**< Advanced register map */
 158:../Libmaple/libmaple/libmaple/timer.h ****     timer_gen_reg_map *gen;     /**< General purpose register map */
 159:../Libmaple/libmaple/libmaple/timer.h ****     timer_bas_reg_map *bas;     /**< Basic register map */
 160:../Libmaple/libmaple/libmaple/timer.h **** } timer_reg_map;
 161:../Libmaple/libmaple/libmaple/timer.h **** 
 162:../Libmaple/libmaple/libmaple/timer.h **** /**
 163:../Libmaple/libmaple/libmaple/timer.h ****  * @brief Timer type
 164:../Libmaple/libmaple/libmaple/timer.h ****  *
 165:../Libmaple/libmaple/libmaple/timer.h ****  * Type marker for timer_dev.
 166:../Libmaple/libmaple/libmaple/timer.h ****  *
 167:../Libmaple/libmaple/libmaple/timer.h ****  * @see timer_dev
 168:../Libmaple/libmaple/libmaple/timer.h ****  */
 169:../Libmaple/libmaple/libmaple/timer.h **** typedef enum timer_type {
 170:../Libmaple/libmaple/libmaple/timer.h ****     TIMER_ADVANCED,             /**< Advanced type */
 171:../Libmaple/libmaple/libmaple/timer.h ****     TIMER_GENERAL,              /**< General purpose type */
 172:../Libmaple/libmaple/libmaple/timer.h ****     TIMER_BASIC                 /**< Basic type */
 173:../Libmaple/libmaple/libmaple/timer.h **** } timer_type;
 174:../Libmaple/libmaple/libmaple/timer.h **** 
 175:../Libmaple/libmaple/libmaple/timer.h **** /** Timer device type */
 176:../Libmaple/libmaple/libmaple/timer.h **** typedef struct timer_dev {
 177:../Libmaple/libmaple/libmaple/timer.h ****     timer_reg_map regs;         /**< Register map */
 178:../Libmaple/libmaple/libmaple/timer.h ****     rcc_clk_id clk_id;          /**< RCC clock information */
 179:../Libmaple/libmaple/libmaple/timer.h ****     timer_type type;            /**< Timer's type */
 180:../Libmaple/libmaple/libmaple/timer.h ****     voidFuncPtr handlers[];     /**< User IRQ handlers */
 181:../Libmaple/libmaple/libmaple/timer.h **** } timer_dev;
 182:../Libmaple/libmaple/libmaple/timer.h **** 
 183:../Libmaple/libmaple/libmaple/timer.h **** extern timer_dev *TIMER1;
 184:../Libmaple/libmaple/libmaple/timer.h **** extern timer_dev *TIMER2;
 185:../Libmaple/libmaple/libmaple/timer.h **** extern timer_dev *TIMER3;
 186:../Libmaple/libmaple/libmaple/timer.h **** extern timer_dev *TIMER4;
 187:../Libmaple/libmaple/libmaple/timer.h **** #ifdef STM32_HIGH_DENSITY
 188:../Libmaple/libmaple/libmaple/timer.h **** extern timer_dev *TIMER5;
 189:../Libmaple/libmaple/libmaple/timer.h **** extern timer_dev *TIMER6;
 190:../Libmaple/libmaple/libmaple/timer.h **** extern timer_dev *TIMER7;
 191:../Libmaple/libmaple/libmaple/timer.h **** extern timer_dev *TIMER8;
 192:../Libmaple/libmaple/libmaple/timer.h **** #endif
 193:../Libmaple/libmaple/libmaple/timer.h **** 
 194:../Libmaple/libmaple/libmaple/timer.h **** /*
 195:../Libmaple/libmaple/libmaple/timer.h ****  * Register bit definitions
 196:../Libmaple/libmaple/libmaple/timer.h ****  */
 197:../Libmaple/libmaple/libmaple/timer.h **** 
 198:../Libmaple/libmaple/libmaple/timer.h **** /* Control register 1 (CR1) */
 199:../Libmaple/libmaple/libmaple/timer.h **** 
 200:../Libmaple/libmaple/libmaple/timer.h **** #define TIMER_CR1_ARPE_BIT              7
 201:../Libmaple/libmaple/libmaple/timer.h **** #define TIMER_CR1_DIR_BIT               4
 202:../Libmaple/libmaple/libmaple/timer.h **** #define TIMER_CR1_OPM_BIT               3
 203:../Libmaple/libmaple/libmaple/timer.h **** #define TIMER_CR1_URS_BIT               2
 204:../Libmaple/libmaple/libmaple/timer.h **** #define TIMER_CR1_UDIS_BIT              1
 205:../Libmaple/libmaple/libmaple/timer.h **** #define TIMER_CR1_CEN_BIT               0
 206:../Libmaple/libmaple/libmaple/timer.h **** 
 207:../Libmaple/libmaple/libmaple/timer.h **** #define TIMER_CR1_CKD                   (0x3 << 8)
 208:../Libmaple/libmaple/libmaple/timer.h **** #define TIMER_CR1_CKD_1TCKINT           (0x0 << 8)
 209:../Libmaple/libmaple/libmaple/timer.h **** #define TIMER_CR1_CKD_2TCKINT           (0x1 << 8)
 210:../Libmaple/libmaple/libmaple/timer.h **** #define TIMER_CR1_CKD_4TICKINT          (0x2 << 8)
 211:../Libmaple/libmaple/libmaple/timer.h **** #define TIMER_CR1_ARPE                  BIT(TIMER_CR1_ARPE_BIT)
 212:../Libmaple/libmaple/libmaple/timer.h **** #define TIMER_CR1_CKD_CMS               (0x3 << 5)
 213:../Libmaple/libmaple/libmaple/timer.h **** #define TIMER_CR1_CKD_CMS_EDGE          (0x0 << 5)
 214:../Libmaple/libmaple/libmaple/timer.h **** #define TIMER_CR1_CKD_CMS_CENTER1       (0x1 << 5)
 215:../Libmaple/libmaple/libmaple/timer.h **** #define TIMER_CR1_CKD_CMS_CENTER2       (0x2 << 5)
 216:../Libmaple/libmaple/libmaple/timer.h **** #define TIMER_CR1_CKD_CMS_CENTER3       (0x3 << 5)
 217:../Libmaple/libmaple/libmaple/timer.h **** #define TIMER_CR1_DIR                   BIT(TIMER_CR1_DIR_BIT)
 218:../Libmaple/libmaple/libmaple/timer.h **** #define TIMER_CR1_OPM                   BIT(TIMER_CR1_OPM_BIT)
 219:../Libmaple/libmaple/libmaple/timer.h **** #define TIMER_CR1_URS                   BIT(TIMER_CR1_URS_BIT)
 220:../Libmaple/libmaple/libmaple/timer.h **** #define TIMER_CR1_UDIS                  BIT(TIMER_CR1_UDIS_BIT)
 221:../Libmaple/libmaple/libmaple/timer.h **** #define TIMER_CR1_CEN                   BIT(TIMER_CR1_CEN_BIT)
 222:../Libmaple/libmaple/libmaple/timer.h **** 
 223:../Libmaple/libmaple/libmaple/timer.h **** /* Control register 2 (CR2) */
 224:../Libmaple/libmaple/libmaple/timer.h **** 
 225:../Libmaple/libmaple/libmaple/timer.h **** #define TIMER_CR2_OIS4_BIT              14
 226:../Libmaple/libmaple/libmaple/timer.h **** #define TIMER_CR2_OIS3N_BIT             13
 227:../Libmaple/libmaple/libmaple/timer.h **** #define TIMER_CR2_OIS3_BIT              12
 228:../Libmaple/libmaple/libmaple/timer.h **** #define TIMER_CR2_OIS2N_BIT             11
 229:../Libmaple/libmaple/libmaple/timer.h **** #define TIMER_CR2_OIS2_BIT              10
 230:../Libmaple/libmaple/libmaple/timer.h **** #define TIMER_CR2_OIS1N_BIT             9
 231:../Libmaple/libmaple/libmaple/timer.h **** #define TIMER_CR2_OIS1_BIT              8
 232:../Libmaple/libmaple/libmaple/timer.h **** #define TIMER_CR2_TI1S_BIT              7 /* tills? yikes */
 233:../Libmaple/libmaple/libmaple/timer.h **** #define TIMER_CR2_CCDS_BIT              3
 234:../Libmaple/libmaple/libmaple/timer.h **** #define TIMER_CR2_CCUS_BIT              2
 235:../Libmaple/libmaple/libmaple/timer.h **** #define TIMER_CR2_CCPC_BIT              0
 236:../Libmaple/libmaple/libmaple/timer.h **** 
 237:../Libmaple/libmaple/libmaple/timer.h **** #define TIMER_CR2_OIS4                  BIT(TIMER_CR2_OIS4_BIT)
 238:../Libmaple/libmaple/libmaple/timer.h **** #define TIMER_CR2_OIS3N                 BIT(TIMER_CR2_OIS3N_BIT)
 239:../Libmaple/libmaple/libmaple/timer.h **** #define TIMER_CR2_OIS3                  BIT(TIMER_CR2_OIS3_BIT)
 240:../Libmaple/libmaple/libmaple/timer.h **** #define TIMER_CR2_OIS2N                 BIT(TIMER_CR2_OIS2N_BIT)
 241:../Libmaple/libmaple/libmaple/timer.h **** #define TIMER_CR2_OIS2                  BIT(TIMER_CR2_OIS2_BIT)
 242:../Libmaple/libmaple/libmaple/timer.h **** #define TIMER_CR2_OIS1N                 BIT(TIMER_CR2_OIS1N_BIT)
 243:../Libmaple/libmaple/libmaple/timer.h **** #define TIMER_CR2_OIS1                  BIT(TIMER_CR2_OIS1_BIT)
 244:../Libmaple/libmaple/libmaple/timer.h **** #define TIMER_CR2_TI1S                  BIT(TIMER_CR2_TI1S_BIT)
 245:../Libmaple/libmaple/libmaple/timer.h **** #define TIMER_CR2_MMS                   (0x7 << 4)
 246:../Libmaple/libmaple/libmaple/timer.h **** #define TIMER_CR2_MMS_RESET             (0x0 << 4)
 247:../Libmaple/libmaple/libmaple/timer.h **** #define TIMER_CR2_MMS_ENABLE            (0x1 << 4)
 248:../Libmaple/libmaple/libmaple/timer.h **** #define TIMER_CR2_MMS_UPDATE            (0x2 << 4)
 249:../Libmaple/libmaple/libmaple/timer.h **** #define TIMER_CR2_MMS_COMPARE_PULSE     (0x3 << 4)
 250:../Libmaple/libmaple/libmaple/timer.h **** #define TIMER_CR2_MMS_COMPARE_OC1REF    (0x4 << 4)
 251:../Libmaple/libmaple/libmaple/timer.h **** #define TIMER_CR2_MMS_COMPARE_OC2REF    (0x5 << 4)
 252:../Libmaple/libmaple/libmaple/timer.h **** #define TIMER_CR2_MMS_COMPARE_OC3REF    (0x6 << 4)
 253:../Libmaple/libmaple/libmaple/timer.h **** #define TIMER_CR2_MMS_COMPARE_OC4REF    (0x7 << 4)
 254:../Libmaple/libmaple/libmaple/timer.h **** #define TIMER_CR2_CCDS                  BIT(TIMER_CR2_CCDS_BIT)
 255:../Libmaple/libmaple/libmaple/timer.h **** #define TIMER_CR2_CCUS                  BIT(TIMER_CR2_CCUS_BIT)
 256:../Libmaple/libmaple/libmaple/timer.h **** #define TIMER_CR2_CCPC                  BIT(TIMER_CR2_CCPC_BIT)
 257:../Libmaple/libmaple/libmaple/timer.h **** 
 258:../Libmaple/libmaple/libmaple/timer.h **** /* Slave mode control register (SMCR) */
 259:../Libmaple/libmaple/libmaple/timer.h **** 
 260:../Libmaple/libmaple/libmaple/timer.h **** #define TIMER_SMCR_ETP_BIT              15
 261:../Libmaple/libmaple/libmaple/timer.h **** #define TIMER_SMCR_ECE_BIT              14
 262:../Libmaple/libmaple/libmaple/timer.h **** #define TIMER_SMCR_MSM_BIT              7
 263:../Libmaple/libmaple/libmaple/timer.h **** 
 264:../Libmaple/libmaple/libmaple/timer.h **** #define TIMER_SMCR_ETP                  BIT(TIMER_SMCR_ETP_BIT)
 265:../Libmaple/libmaple/libmaple/timer.h **** #define TIMER_SMCR_ECE                  BIT(TIMER_SMCR_ECE_BIT)
 266:../Libmaple/libmaple/libmaple/timer.h **** #define TIMER_SMCR_ETPS                 (0x3 << 12)
 267:../Libmaple/libmaple/libmaple/timer.h **** #define TIMER_SMCR_ETPS_OFF             (0x0 << 12)
 268:../Libmaple/libmaple/libmaple/timer.h **** #define TIMER_SMCR_ETPS_DIV2            (0x1 << 12)
 269:../Libmaple/libmaple/libmaple/timer.h **** #define TIMER_SMCR_ETPS_DIV4            (0x2 << 12)
 270:../Libmaple/libmaple/libmaple/timer.h **** #define TIMER_SMCR_ETPS_DIV8            (0x3 << 12)
 271:../Libmaple/libmaple/libmaple/timer.h **** #define TIMER_SMCR_ETF                  (0xF << 12)
 272:../Libmaple/libmaple/libmaple/timer.h **** #define TIMER_SMCR_MSM                  BIT(TIMER_SMCR_MSM_BIT)
 273:../Libmaple/libmaple/libmaple/timer.h **** #define TIMER_SMCR_TS                   (0x3 << 4)
 274:../Libmaple/libmaple/libmaple/timer.h **** #define TIMER_SMCR_TS_ITR0              (0x0 << 4)
 275:../Libmaple/libmaple/libmaple/timer.h **** #define TIMER_SMCR_TS_ITR1              (0x1 << 4)
 276:../Libmaple/libmaple/libmaple/timer.h **** #define TIMER_SMCR_TS_ITR2              (0x2 << 4)
 277:../Libmaple/libmaple/libmaple/timer.h **** #define TIMER_SMCR_TS_ITR3              (0x3 << 4)
 278:../Libmaple/libmaple/libmaple/timer.h **** #define TIMER_SMCR_TS_TI1F_ED           (0x4 << 4)
 279:../Libmaple/libmaple/libmaple/timer.h **** #define TIMER_SMCR_TS_TI1FP1            (0x5 << 4)
 280:../Libmaple/libmaple/libmaple/timer.h **** #define TIMER_SMCR_TS_TI2FP2            (0x6 << 4)
 281:../Libmaple/libmaple/libmaple/timer.h **** #define TIMER_SMCR_TS_ETRF              (0x7 << 4)
 282:../Libmaple/libmaple/libmaple/timer.h **** #define TIMER_SMCR_SMS                  0x3
 283:../Libmaple/libmaple/libmaple/timer.h **** #define TIMER_SMCR_SMS_DISABLED         0x0
 284:../Libmaple/libmaple/libmaple/timer.h **** #define TIMER_SMCR_SMS_ENCODER1         0x1
 285:../Libmaple/libmaple/libmaple/timer.h **** #define TIMER_SMCR_SMS_ENCODER2         0x2
 286:../Libmaple/libmaple/libmaple/timer.h **** #define TIMER_SMCR_SMS_ENCODER3         0x3
 287:../Libmaple/libmaple/libmaple/timer.h **** #define TIMER_SMCR_SMS_RESET            0x4
 288:../Libmaple/libmaple/libmaple/timer.h **** #define TIMER_SMCR_SMS_GATED            0x5
 289:../Libmaple/libmaple/libmaple/timer.h **** #define TIMER_SMCR_SMS_TRIGGER          0x6
 290:../Libmaple/libmaple/libmaple/timer.h **** #define TIMER_SMCR_SMS_EXTERNAL         0x7
 291:../Libmaple/libmaple/libmaple/timer.h **** 
 292:../Libmaple/libmaple/libmaple/timer.h **** /* DMA/Interrupt enable register (DIER) */
 293:../Libmaple/libmaple/libmaple/timer.h **** 
 294:../Libmaple/libmaple/libmaple/timer.h **** #define TIMER_DIER_TDE_BIT              14
 295:../Libmaple/libmaple/libmaple/timer.h **** #define TIMER_DIER_CC4DE_BIT            12
 296:../Libmaple/libmaple/libmaple/timer.h **** #define TIMER_DIER_CC3DE_BIT            11
 297:../Libmaple/libmaple/libmaple/timer.h **** #define TIMER_DIER_CC2DE_BIT            10
 298:../Libmaple/libmaple/libmaple/timer.h **** #define TIMER_DIER_CC1DE_BIT            9
 299:../Libmaple/libmaple/libmaple/timer.h **** #define TIMER_DIER_UDE_BIT              8
 300:../Libmaple/libmaple/libmaple/timer.h **** #define TIMER_DIER_TIE_BIT              6
 301:../Libmaple/libmaple/libmaple/timer.h **** #define TIMER_DIER_CC4IE_BIT            4
 302:../Libmaple/libmaple/libmaple/timer.h **** #define TIMER_DIER_CC3IE_BIT            3
 303:../Libmaple/libmaple/libmaple/timer.h **** #define TIMER_DIER_CC2IE_BIT            2
 304:../Libmaple/libmaple/libmaple/timer.h **** #define TIMER_DIER_CC1IE_BIT            1
 305:../Libmaple/libmaple/libmaple/timer.h **** #define TIMER_DIER_UIE_BIT              0
 306:../Libmaple/libmaple/libmaple/timer.h **** 
 307:../Libmaple/libmaple/libmaple/timer.h **** #define TIMER_DIER_TDE                  BIT(TIMER_DIER_TDE_BIT)
 308:../Libmaple/libmaple/libmaple/timer.h **** #define TIMER_DIER_CC4DE                BIT(TIMER_DIER_CC4DE_BIT)
 309:../Libmaple/libmaple/libmaple/timer.h **** #define TIMER_DIER_CC3DE                BIT(TIMER_DIER_CC3DE_BIT)
 310:../Libmaple/libmaple/libmaple/timer.h **** #define TIMER_DIER_CC2DE                BIT(TIMER_DIER_CC2DE_BIT)
 311:../Libmaple/libmaple/libmaple/timer.h **** #define TIMER_DIER_CC1DE                BIT(TIMER_DIER_CC1DE_BIT)
 312:../Libmaple/libmaple/libmaple/timer.h **** #define TIMER_DIER_UDE                  BIT(TIMER_DIER_UDE_BIT)
 313:../Libmaple/libmaple/libmaple/timer.h **** #define TIMER_DIER_TIE                  BIT(TIMER_DIER_TIE_BIT)
 314:../Libmaple/libmaple/libmaple/timer.h **** #define TIMER_DIER_CC4IE                BIT(TIMER_DIER_CC4IE_BIT)
 315:../Libmaple/libmaple/libmaple/timer.h **** #define TIMER_DIER_CC3IE                BIT(TIMER_DIER_CC3IE_BIT)
 316:../Libmaple/libmaple/libmaple/timer.h **** #define TIMER_DIER_CC2IE                BIT(TIMER_DIER_CC2IE_BIT)
 317:../Libmaple/libmaple/libmaple/timer.h **** #define TIMER_DIER_CC1IE                BIT(TIMER_DIER_CC1IE_BIT)
 318:../Libmaple/libmaple/libmaple/timer.h **** #define TIMER_DIER_UIE                  BIT(TIMER_DIER_UIE_BIT)
 319:../Libmaple/libmaple/libmaple/timer.h **** 
 320:../Libmaple/libmaple/libmaple/timer.h **** /* Status register (SR) */
 321:../Libmaple/libmaple/libmaple/timer.h **** 
 322:../Libmaple/libmaple/libmaple/timer.h **** #define TIMER_SR_CC4OF_BIT              12
 323:../Libmaple/libmaple/libmaple/timer.h **** #define TIMER_SR_CC3OF_BIT              11
 324:../Libmaple/libmaple/libmaple/timer.h **** #define TIMER_SR_CC2OF_BIT              10
 325:../Libmaple/libmaple/libmaple/timer.h **** #define TIMER_SR_CC1OF_BIT              9
 326:../Libmaple/libmaple/libmaple/timer.h **** #define TIMER_SR_BIF_BIT                7
 327:../Libmaple/libmaple/libmaple/timer.h **** #define TIMER_SR_TIF_BIT                6
 328:../Libmaple/libmaple/libmaple/timer.h **** #define TIMER_SR_COMIF_BIT              5
 329:../Libmaple/libmaple/libmaple/timer.h **** #define TIMER_SR_CC4IF_BIT              4
 330:../Libmaple/libmaple/libmaple/timer.h **** #define TIMER_SR_CC3IF_BIT              3
 331:../Libmaple/libmaple/libmaple/timer.h **** #define TIMER_SR_CC2IF_BIT              2
 332:../Libmaple/libmaple/libmaple/timer.h **** #define TIMER_SR_CC1IF_BIT              1
 333:../Libmaple/libmaple/libmaple/timer.h **** #define TIMER_SR_UIF_BIT                0
 334:../Libmaple/libmaple/libmaple/timer.h **** 
 335:../Libmaple/libmaple/libmaple/timer.h **** #define TIMER_SR_CC4OF                  BIT(TIMER_SR_CC4OF_BIT)
 336:../Libmaple/libmaple/libmaple/timer.h **** #define TIMER_SR_CC3OF                  BIT(TIMER_SR_CC3OF_BIT)
 337:../Libmaple/libmaple/libmaple/timer.h **** #define TIMER_SR_CC2OF                  BIT(TIMER_SR_CC2OF_BIT)
 338:../Libmaple/libmaple/libmaple/timer.h **** #define TIMER_SR_CC1OF                  BIT(TIMER_SR_CC1OF_BIT)
 339:../Libmaple/libmaple/libmaple/timer.h **** #define TIMER_SR_BIF                    BIT(TIMER_SR_BIF_BIT)
 340:../Libmaple/libmaple/libmaple/timer.h **** #define TIMER_SR_TIF                    BIT(TIMER_SR_TIF_BIT)
 341:../Libmaple/libmaple/libmaple/timer.h **** #define TIMER_SR_COMIF                  BIT(TIMER_SR_COMIF_BIT)
 342:../Libmaple/libmaple/libmaple/timer.h **** #define TIMER_SR_CC4IF                  BIT(TIMER_SR_CC4IF_BIT)
 343:../Libmaple/libmaple/libmaple/timer.h **** #define TIMER_SR_CC3IF                  BIT(TIMER_SR_CC3IF_BIT)
 344:../Libmaple/libmaple/libmaple/timer.h **** #define TIMER_SR_CC2IF                  BIT(TIMER_SR_CC2IF_BIT)
 345:../Libmaple/libmaple/libmaple/timer.h **** #define TIMER_SR_CC1IF                  BIT(TIMER_SR_CC1IF_BIT)
 346:../Libmaple/libmaple/libmaple/timer.h **** #define TIMER_SR_UIF                    BIT(TIMER_SR_UIF_BIT)
 347:../Libmaple/libmaple/libmaple/timer.h **** 
 348:../Libmaple/libmaple/libmaple/timer.h **** /* Event generation register (EGR) */
 349:../Libmaple/libmaple/libmaple/timer.h **** 
 350:../Libmaple/libmaple/libmaple/timer.h **** #define TIMER_EGR_TG_BIT                6
 351:../Libmaple/libmaple/libmaple/timer.h **** #define TIMER_EGR_CC4G_BIT              4
 352:../Libmaple/libmaple/libmaple/timer.h **** #define TIMER_EGR_CC3G_BIT              3
 353:../Libmaple/libmaple/libmaple/timer.h **** #define TIMER_EGR_CC2G_BIT              2
 354:../Libmaple/libmaple/libmaple/timer.h **** #define TIMER_EGR_CC1G_BIT              1
 355:../Libmaple/libmaple/libmaple/timer.h **** #define TIMER_EGR_UG_BIT                0
 356:../Libmaple/libmaple/libmaple/timer.h **** 
 357:../Libmaple/libmaple/libmaple/timer.h **** #define TIMER_EGR_TG                    BIT(TIMER_EGR_TG_BIT)
 358:../Libmaple/libmaple/libmaple/timer.h **** #define TIMER_EGR_CC4G                  BIT(TIMER_EGR_CC4G_BIT)
 359:../Libmaple/libmaple/libmaple/timer.h **** #define TIMER_EGR_CC3G                  BIT(TIMER_EGR_CC3G_BIT)
 360:../Libmaple/libmaple/libmaple/timer.h **** #define TIMER_EGR_CC2G                  BIT(TIMER_EGR_CC2G_BIT)
 361:../Libmaple/libmaple/libmaple/timer.h **** #define TIMER_EGR_CC1G                  BIT(TIMER_EGR_CC1G_BIT)
 362:../Libmaple/libmaple/libmaple/timer.h **** #define TIMER_EGR_UG                    BIT(TIMER_EGR_UG_BIT)
 363:../Libmaple/libmaple/libmaple/timer.h **** 
 364:../Libmaple/libmaple/libmaple/timer.h **** /* Capture/compare mode registers, common values */
 365:../Libmaple/libmaple/libmaple/timer.h **** 
 366:../Libmaple/libmaple/libmaple/timer.h **** #define TIMER_CCMR_CCS_OUTPUT           0x0
 367:../Libmaple/libmaple/libmaple/timer.h **** #define TIMER_CCMR_CCS_INPUT_TI1        0x1
 368:../Libmaple/libmaple/libmaple/timer.h **** #define TIMER_CCMR_CCS_INPUT_TI2        0x2
 369:../Libmaple/libmaple/libmaple/timer.h **** #define TIMER_CCMR_CCS_INPUT_TRC        0x3
 370:../Libmaple/libmaple/libmaple/timer.h **** 
 371:../Libmaple/libmaple/libmaple/timer.h **** /* Capture/compare mode register 1 (CCMR1) */
 372:../Libmaple/libmaple/libmaple/timer.h **** 
 373:../Libmaple/libmaple/libmaple/timer.h **** #define TIMER_CCMR1_OC2CE_BIT           15
 374:../Libmaple/libmaple/libmaple/timer.h **** #define TIMER_CCMR1_OC2PE_BIT           11
 375:../Libmaple/libmaple/libmaple/timer.h **** #define TIMER_CCMR1_OC2FE_BIT           10
 376:../Libmaple/libmaple/libmaple/timer.h **** #define TIMER_CCMR1_OC1CE_BIT           7
 377:../Libmaple/libmaple/libmaple/timer.h **** #define TIMER_CCMR1_OC1PE_BIT           3
 378:../Libmaple/libmaple/libmaple/timer.h **** #define TIMER_CCMR1_OC1FE_BIT           2
 379:../Libmaple/libmaple/libmaple/timer.h **** 
 380:../Libmaple/libmaple/libmaple/timer.h **** #define TIMER_CCMR1_OC2CE               BIT(TIMER_CCMR1_OC2CE_BIT)
 381:../Libmaple/libmaple/libmaple/timer.h **** #define TIMER_CCMR1_OC2M                (0x3 << 12)
 382:../Libmaple/libmaple/libmaple/timer.h **** #define TIMER_CCMR1_IC2F                (0xF << 12)
 383:../Libmaple/libmaple/libmaple/timer.h **** #define TIMER_CCMR1_OC2PE               BIT(TIMER_CCMR1_OC2PE_BIT)
 384:../Libmaple/libmaple/libmaple/timer.h **** #define TIMER_CCMR1_OC2FE               BIT(TIMER_CCMR1_OC2FE_BIT)
 385:../Libmaple/libmaple/libmaple/timer.h **** #define TIMER_CCMR1_IC2PSC              (0x3 << 10)
 386:../Libmaple/libmaple/libmaple/timer.h **** #define TIMER_CCMR1_CC2S                (0x3 << 8)
 387:../Libmaple/libmaple/libmaple/timer.h **** #define TIMER_CCMR1_CC2S_OUTPUT         (TIMER_CCMR_CCS_OUTPUT << 8)
 388:../Libmaple/libmaple/libmaple/timer.h **** #define TIMER_CCMR1_CC2S_INPUT_TI1      (TIMER_CCMR_CCS_INPUT_TI1 << 8)
 389:../Libmaple/libmaple/libmaple/timer.h **** #define TIMER_CCMR1_CC2S_INPUT_TI2      (TIMER_CCMR_CCS_INPUT_TI2 << 8)
 390:../Libmaple/libmaple/libmaple/timer.h **** #define TIMER_CCMR1_CC2S_INPUT_TRC      (TIMER_CCMR_CCS_INPUT_TRC << 8)
 391:../Libmaple/libmaple/libmaple/timer.h **** #define TIMER_CCMR1_OC1CE               BIT(TIMER_CCMR1_OC1CE_BIT)
 392:../Libmaple/libmaple/libmaple/timer.h **** #define TIMER_CCMR1_OC1M                (0x3 << 4)
 393:../Libmaple/libmaple/libmaple/timer.h **** #define TIMER_CCMR1_IC1F                (0xF << 4)
 394:../Libmaple/libmaple/libmaple/timer.h **** #define TIMER_CCMR1_OC1PE               BIT(TIMER_CCMR1_OC1PE_BIT)
 395:../Libmaple/libmaple/libmaple/timer.h **** #define TIMER_CCMR1_OC1FE               BIT(TIMER_CCMR1_OC1FE_BIT)
 396:../Libmaple/libmaple/libmaple/timer.h **** #define TIMER_CCMR1_IC1PSC              (0x3 << 2)
 397:../Libmaple/libmaple/libmaple/timer.h **** #define TIMER_CCMR1_CC1S                0x3
 398:../Libmaple/libmaple/libmaple/timer.h **** #define TIMER_CCMR1_CC1S_OUTPUT         TIMER_CCMR_CCS_OUTPUT
 399:../Libmaple/libmaple/libmaple/timer.h **** #define TIMER_CCMR1_CC1S_INPUT_TI1      TIMER_CCMR_CCS_INPUT_TI1
 400:../Libmaple/libmaple/libmaple/timer.h **** #define TIMER_CCMR1_CC1S_INPUT_TI2      TIMER_CCMR_CCS_INPUT_TI2
 401:../Libmaple/libmaple/libmaple/timer.h **** #define TIMER_CCMR1_CC1S_INPUT_TRC      TIMER_CCMR_CCS_INPUT_TRC
 402:../Libmaple/libmaple/libmaple/timer.h **** 
 403:../Libmaple/libmaple/libmaple/timer.h **** /* Capture/compare mode register 2 (CCMR2) */
 404:../Libmaple/libmaple/libmaple/timer.h **** 
 405:../Libmaple/libmaple/libmaple/timer.h **** #define TIMER_CCMR2_OC4CE_BIT           15
 406:../Libmaple/libmaple/libmaple/timer.h **** #define TIMER_CCMR2_OC4PE_BIT           11
 407:../Libmaple/libmaple/libmaple/timer.h **** #define TIMER_CCMR2_OC4FE_BIT           10
 408:../Libmaple/libmaple/libmaple/timer.h **** #define TIMER_CCMR2_OC3CE_BIT           7
 409:../Libmaple/libmaple/libmaple/timer.h **** #define TIMER_CCMR2_OC3PE_BIT           3
 410:../Libmaple/libmaple/libmaple/timer.h **** #define TIMER_CCMR2_OC3FE_BIT           2
 411:../Libmaple/libmaple/libmaple/timer.h **** 
 412:../Libmaple/libmaple/libmaple/timer.h **** #define TIMER_CCMR2_OC4CE               BIT(TIMER_CCMR2_OC4CE_BIT)
 413:../Libmaple/libmaple/libmaple/timer.h **** #define TIMER_CCMR2_OC4M                (0x3 << 12)
 414:../Libmaple/libmaple/libmaple/timer.h **** #define TIMER_CCMR2_IC2F                (0xF << 12)
 415:../Libmaple/libmaple/libmaple/timer.h **** #define TIMER_CCMR2_OC4PE               BIT(TIMER_CCMR2_OC4PE_BIT)
 416:../Libmaple/libmaple/libmaple/timer.h **** #define TIMER_CCMR2_OC4FE               BIT(TIMER_CCMR2_OC4FE_BIT)
 417:../Libmaple/libmaple/libmaple/timer.h **** #define TIMER_CCMR2_IC2PSC              (0x3 << 10)
 418:../Libmaple/libmaple/libmaple/timer.h **** #define TIMER_CCMR2_CC4S                (0x3 << 8)
 419:../Libmaple/libmaple/libmaple/timer.h **** #define TIMER_CCMR1_CC4S_OUTPUT         (TIMER_CCMR_CCS_OUTPUT << 8)
 420:../Libmaple/libmaple/libmaple/timer.h **** #define TIMER_CCMR1_CC4S_INPUT_TI1      (TIMER_CCMR_CCS_INPUT_TI1 << 8)
 421:../Libmaple/libmaple/libmaple/timer.h **** #define TIMER_CCMR1_CC4S_INPUT_TI2      (TIMER_CCMR_CCS_INPUT_TI2 << 8)
 422:../Libmaple/libmaple/libmaple/timer.h **** #define TIMER_CCMR1_CC4S_INPUT_TRC      (TIMER_CCMR_CCS_INPUT_TRC << 8)
 423:../Libmaple/libmaple/libmaple/timer.h **** #define TIMER_CCMR2_OC3CE               BIT(TIMER_CCMR2_OC3CE_BIT)
 424:../Libmaple/libmaple/libmaple/timer.h **** #define TIMER_CCMR2_OC3M                (0x3 << 4)
 425:../Libmaple/libmaple/libmaple/timer.h **** #define TIMER_CCMR2_IC1F                (0xF << 4)
 426:../Libmaple/libmaple/libmaple/timer.h **** #define TIMER_CCMR2_OC3PE               BIT(TIMER_CCMR2_OC3PE_BIT)
 427:../Libmaple/libmaple/libmaple/timer.h **** #define TIMER_CCMR2_OC3FE               BIT(TIMER_CCMR2_OC3FE_BIT)
 428:../Libmaple/libmaple/libmaple/timer.h **** #define TIMER_CCMR2_IC1PSC              (0x3 << 2)
 429:../Libmaple/libmaple/libmaple/timer.h **** #define TIMER_CCMR2_CC3S                0x3
 430:../Libmaple/libmaple/libmaple/timer.h **** #define TIMER_CCMR1_CC3S_OUTPUT         TIMER_CCMR_CCS_OUTPUT
 431:../Libmaple/libmaple/libmaple/timer.h **** #define TIMER_CCMR1_CC3S_INPUT_TI1      TIMER_CCMR_CCS_INPUT_TI1
 432:../Libmaple/libmaple/libmaple/timer.h **** #define TIMER_CCMR1_CC3S_INPUT_TI2      TIMER_CCMR_CCS_INPUT_TI2
 433:../Libmaple/libmaple/libmaple/timer.h **** #define TIMER_CCMR1_CC3S_INPUT_TRC      TIMER_CCMR_CCS_INPUT_TRC
 434:../Libmaple/libmaple/libmaple/timer.h **** 
 435:../Libmaple/libmaple/libmaple/timer.h **** /* Capture/compare enable register (CCER) */
 436:../Libmaple/libmaple/libmaple/timer.h **** 
 437:../Libmaple/libmaple/libmaple/timer.h **** #define TIMER_CCER_CC4P_BIT             13
 438:../Libmaple/libmaple/libmaple/timer.h **** #define TIMER_CCER_CC4E_BIT             12
 439:../Libmaple/libmaple/libmaple/timer.h **** #define TIMER_CCER_CC3P_BIT             9
 440:../Libmaple/libmaple/libmaple/timer.h **** #define TIMER_CCER_CC3E_BIT             8
 441:../Libmaple/libmaple/libmaple/timer.h **** #define TIMER_CCER_CC2P_BIT             5
 442:../Libmaple/libmaple/libmaple/timer.h **** #define TIMER_CCER_CC2E_BIT             4
 443:../Libmaple/libmaple/libmaple/timer.h **** #define TIMER_CCER_CC1P_BIT             1
 444:../Libmaple/libmaple/libmaple/timer.h **** #define TIMER_CCER_CC1E_BIT             0
 445:../Libmaple/libmaple/libmaple/timer.h **** 
 446:../Libmaple/libmaple/libmaple/timer.h **** #define TIMER_CCER_CC4P                 BIT(TIMER_CCER_CC4P_BIT)
 447:../Libmaple/libmaple/libmaple/timer.h **** #define TIMER_CCER_CC4E                 BIT(TIMER_CCER_CC4E_BIT)
 448:../Libmaple/libmaple/libmaple/timer.h **** #define TIMER_CCER_CC3P                 BIT(TIMER_CCER_CC3P_BIT)
 449:../Libmaple/libmaple/libmaple/timer.h **** #define TIMER_CCER_CC3E                 BIT(TIMER_CCER_CC3E_BIT)
 450:../Libmaple/libmaple/libmaple/timer.h **** #define TIMER_CCER_CC2P                 BIT(TIMER_CCER_CC2P_BIT)
 451:../Libmaple/libmaple/libmaple/timer.h **** #define TIMER_CCER_CC2E                 BIT(TIMER_CCER_CC2E_BIT)
 452:../Libmaple/libmaple/libmaple/timer.h **** #define TIMER_CCER_CC1P                 BIT(TIMER_CCER_CC1P_BIT)
 453:../Libmaple/libmaple/libmaple/timer.h **** #define TIMER_CCER_CC1E                 BIT(TIMER_CCER_CC1E_BIT)
 454:../Libmaple/libmaple/libmaple/timer.h **** 
 455:../Libmaple/libmaple/libmaple/timer.h **** /* Break and dead-time register (BDTR) */
 456:../Libmaple/libmaple/libmaple/timer.h **** 
 457:../Libmaple/libmaple/libmaple/timer.h **** #define TIMER_BDTR_MOE_BIT              15
 458:../Libmaple/libmaple/libmaple/timer.h **** #define TIMER_BDTR_AOE_BIT              14
 459:../Libmaple/libmaple/libmaple/timer.h **** #define TIMER_BDTR_BKP_BIT              13
 460:../Libmaple/libmaple/libmaple/timer.h **** #define TIMER_BDTR_BKE_BIT              12
 461:../Libmaple/libmaple/libmaple/timer.h **** #define TIMER_BDTR_OSSR_BIT             11
 462:../Libmaple/libmaple/libmaple/timer.h **** #define TIMER_BDTR_OSSI_BIT             10
 463:../Libmaple/libmaple/libmaple/timer.h **** 
 464:../Libmaple/libmaple/libmaple/timer.h **** #define TIMER_BDTR_MOE                  BIT(TIMER_BDTR_MOE_BIT)
 465:../Libmaple/libmaple/libmaple/timer.h **** #define TIMER_BDTR_AOE                  BIT(TIMER_BDTR_AOE_BIT)
 466:../Libmaple/libmaple/libmaple/timer.h **** #define TIMER_BDTR_BKP                  BIT(TIMER_BDTR_BKP_BIT)
 467:../Libmaple/libmaple/libmaple/timer.h **** #define TIMER_BDTR_BKE                  BIT(TIMER_BDTR_BKE_BIT)
 468:../Libmaple/libmaple/libmaple/timer.h **** #define TIMER_BDTR_OSSR                 BIT(TIMER_BDTR_OSSR_BIT)
 469:../Libmaple/libmaple/libmaple/timer.h **** #define TIMER_BDTR_OSSI                 BIT(TIMER_BDTR_OSSI_BIT)
 470:../Libmaple/libmaple/libmaple/timer.h **** #define TIMER_BDTR_LOCK                 (0x3 << 8)
 471:../Libmaple/libmaple/libmaple/timer.h **** #define TIMER_BDTR_LOCK_OFF             (0x0 << 8)
 472:../Libmaple/libmaple/libmaple/timer.h **** #define TIMER_BDTR_LOCK_LEVEL1          (0x1 << 8)
 473:../Libmaple/libmaple/libmaple/timer.h **** #define TIMER_BDTR_LOCK_LEVEL2          (0x2 << 8)
 474:../Libmaple/libmaple/libmaple/timer.h **** #define TIMER_BDTR_LOCK_LEVEL3          (0x3 << 8)
 475:../Libmaple/libmaple/libmaple/timer.h **** #define TIMER_BDTR_DTG                  0xFF
 476:../Libmaple/libmaple/libmaple/timer.h **** 
 477:../Libmaple/libmaple/libmaple/timer.h **** /* DMA control register (DCR) */
 478:../Libmaple/libmaple/libmaple/timer.h **** 
 479:../Libmaple/libmaple/libmaple/timer.h **** #define TIMER_DCR_DBL                   (0x1F << 8)
 480:../Libmaple/libmaple/libmaple/timer.h **** #define TIMER_DCR_DBL_1BYTE             (0x0 << 8)
 481:../Libmaple/libmaple/libmaple/timer.h **** #define TIMER_DCR_DBL_2BYTE             (0x1 << 8)
 482:../Libmaple/libmaple/libmaple/timer.h **** #define TIMER_DCR_DBL_3BYTE             (0x2 << 8)
 483:../Libmaple/libmaple/libmaple/timer.h **** #define TIMER_DCR_DBL_4BYTE             (0x3 << 8)
 484:../Libmaple/libmaple/libmaple/timer.h **** #define TIMER_DCR_DBL_5BYTE             (0x4 << 8)
 485:../Libmaple/libmaple/libmaple/timer.h **** #define TIMER_DCR_DBL_6BYTE             (0x5 << 8)
 486:../Libmaple/libmaple/libmaple/timer.h **** #define TIMER_DCR_DBL_7BYTE             (0x6 << 8)
 487:../Libmaple/libmaple/libmaple/timer.h **** #define TIMER_DCR_DBL_8BYTE             (0x7 << 8)
 488:../Libmaple/libmaple/libmaple/timer.h **** #define TIMER_DCR_DBL_9BYTE             (0x8 << 8)
 489:../Libmaple/libmaple/libmaple/timer.h **** #define TIMER_DCR_DBL_10BYTE            (0x9 << 8)
 490:../Libmaple/libmaple/libmaple/timer.h **** #define TIMER_DCR_DBL_11BYTE            (0xA << 8)
 491:../Libmaple/libmaple/libmaple/timer.h **** #define TIMER_DCR_DBL_12BYTE            (0xB << 8)
 492:../Libmaple/libmaple/libmaple/timer.h **** #define TIMER_DCR_DBL_13BYTE            (0xC << 8)
 493:../Libmaple/libmaple/libmaple/timer.h **** #define TIMER_DCR_DBL_14BYTE            (0xD << 8)
 494:../Libmaple/libmaple/libmaple/timer.h **** #define TIMER_DCR_DBL_15BYTE            (0xE << 8)
 495:../Libmaple/libmaple/libmaple/timer.h **** #define TIMER_DCR_DBL_16BYTE            (0xF << 8)
 496:../Libmaple/libmaple/libmaple/timer.h **** #define TIMER_DCR_DBL_17BYTE            (0x10 << 8)
 497:../Libmaple/libmaple/libmaple/timer.h **** #define TIMER_DCR_DBL_18BYTE            (0x11 << 8)
 498:../Libmaple/libmaple/libmaple/timer.h **** #define TIMER_DCR_DBA                   0x1F
 499:../Libmaple/libmaple/libmaple/timer.h **** #define TIMER_DCR_DBA_CR1               0x0
 500:../Libmaple/libmaple/libmaple/timer.h **** #define TIMER_DCR_DBA_CR2               0x1
 501:../Libmaple/libmaple/libmaple/timer.h **** #define TIMER_DCR_DBA_SMCR              0x2
 502:../Libmaple/libmaple/libmaple/timer.h **** #define TIMER_DCR_DBA_DIER              0x3
 503:../Libmaple/libmaple/libmaple/timer.h **** #define TIMER_DCR_DBA_SR                0x4
 504:../Libmaple/libmaple/libmaple/timer.h **** #define TIMER_DCR_DBA_EGR               0x5
 505:../Libmaple/libmaple/libmaple/timer.h **** #define TIMER_DCR_DBA_CCMR1             0x6
 506:../Libmaple/libmaple/libmaple/timer.h **** #define TIMER_DCR_DBA_CCMR2             0x7
 507:../Libmaple/libmaple/libmaple/timer.h **** #define TIMER_DCR_DBA_CCER              0x8
 508:../Libmaple/libmaple/libmaple/timer.h **** #define TIMER_DCR_DBA_CNT               0x9
 509:../Libmaple/libmaple/libmaple/timer.h **** #define TIMER_DCR_DBA_PSC               0xA
 510:../Libmaple/libmaple/libmaple/timer.h **** #define TIMER_DCR_DBA_ARR               0xB
 511:../Libmaple/libmaple/libmaple/timer.h **** #define TIMER_DCR_DBA_RCR               0xC
 512:../Libmaple/libmaple/libmaple/timer.h **** #define TIMER_DCR_DBA_CCR1              0xD
 513:../Libmaple/libmaple/libmaple/timer.h **** #define TIMER_DCR_DBA_CCR2              0xE
 514:../Libmaple/libmaple/libmaple/timer.h **** #define TIMER_DCR_DBA_CCR3              0xF
 515:../Libmaple/libmaple/libmaple/timer.h **** #define TIMER_DCR_DBA_CCR4              0x10
 516:../Libmaple/libmaple/libmaple/timer.h **** #define TIMER_DCR_DBA_BDTR              0x11
 517:../Libmaple/libmaple/libmaple/timer.h **** #define TIMER_DCR_DBA_DCR               0x12
 518:../Libmaple/libmaple/libmaple/timer.h **** #define TIMER_DCR_DBA_DMAR              0x13
 519:../Libmaple/libmaple/libmaple/timer.h **** 
 520:../Libmaple/libmaple/libmaple/timer.h **** /*
 521:../Libmaple/libmaple/libmaple/timer.h ****  * Convenience routines
 522:../Libmaple/libmaple/libmaple/timer.h ****  */
 523:../Libmaple/libmaple/libmaple/timer.h **** 
 524:../Libmaple/libmaple/libmaple/timer.h **** /**
 525:../Libmaple/libmaple/libmaple/timer.h ****  * Used to configure the behavior of a timer channel.  Note that not
 526:../Libmaple/libmaple/libmaple/timer.h ****  * all timers can be configured in every mode.
 527:../Libmaple/libmaple/libmaple/timer.h ****  */
 528:../Libmaple/libmaple/libmaple/timer.h **** /* TODO TIMER_PWM_CENTER_ALIGNED, TIMER_INPUT_CAPTURE, TIMER_ONE_PULSE */
 529:../Libmaple/libmaple/libmaple/timer.h **** typedef enum timer_mode {
 530:../Libmaple/libmaple/libmaple/timer.h ****     TIMER_DISABLED, /**< In this mode, the timer stops counting,
 531:../Libmaple/libmaple/libmaple/timer.h ****                          channel interrupts are detached, and no state
 532:../Libmaple/libmaple/libmaple/timer.h ****                          changes are output. */
 533:../Libmaple/libmaple/libmaple/timer.h ****     TIMER_PWM, /**< PWM output mode. This is the default mode for pins
 534:../Libmaple/libmaple/libmaple/timer.h ****                     after initialization. */
 535:../Libmaple/libmaple/libmaple/timer.h ****     /* TIMER_PWM_CENTER_ALIGNED, /\**< Center-aligned PWM output mode. *\/ */
 536:../Libmaple/libmaple/libmaple/timer.h ****     TIMER_OUTPUT_COMPARE, /**< In this mode, the timer counts from 0
 537:../Libmaple/libmaple/libmaple/timer.h ****                                to its reload value repeatedly; every
 538:../Libmaple/libmaple/libmaple/timer.h ****                                time the counter value reaches one of
 539:../Libmaple/libmaple/libmaple/timer.h ****                                the channel compare values, the
 540:../Libmaple/libmaple/libmaple/timer.h ****                                corresponding interrupt is fired. */
 541:../Libmaple/libmaple/libmaple/timer.h ****     /* TIMER_INPUT_CAPTURE, /\**< In this mode, the timer can measure the */
 542:../Libmaple/libmaple/libmaple/timer.h ****     /*                           pulse lengths of input signals. *\/ */
 543:../Libmaple/libmaple/libmaple/timer.h ****     /* TIMER_ONE_PULSE /\**< In this mode, the timer can generate a single */
 544:../Libmaple/libmaple/libmaple/timer.h ****     /*                      pulse on a GPIO pin for a specified amount of */
 545:../Libmaple/libmaple/libmaple/timer.h ****     /*                      time. *\/ */
 546:../Libmaple/libmaple/libmaple/timer.h **** } timer_mode;
 547:../Libmaple/libmaple/libmaple/timer.h **** 
 548:../Libmaple/libmaple/libmaple/timer.h **** /** Timer channel numbers */
 549:../Libmaple/libmaple/libmaple/timer.h **** typedef enum timer_channel {
 550:../Libmaple/libmaple/libmaple/timer.h ****     TIMER_CH1 = 1, /**< Channel 1 */
 551:../Libmaple/libmaple/libmaple/timer.h ****     TIMER_CH2 = 2, /**< Channel 2 */
 552:../Libmaple/libmaple/libmaple/timer.h ****     TIMER_CH3 = 3, /**< Channel 3 */
 553:../Libmaple/libmaple/libmaple/timer.h ****     TIMER_CH4 = 4  /**< Channel 4 */
 554:../Libmaple/libmaple/libmaple/timer.h **** } timer_channel;
 555:../Libmaple/libmaple/libmaple/timer.h **** 
 556:../Libmaple/libmaple/libmaple/timer.h **** /*
 557:../Libmaple/libmaple/libmaple/timer.h ****  * Note: Don't require timer_channel arguments! We want to be able to say
 558:../Libmaple/libmaple/libmaple/timer.h ****  *
 559:../Libmaple/libmaple/libmaple/timer.h ****  * for (int channel = 1; channel <= 4; channel++) {
 560:../Libmaple/libmaple/libmaple/timer.h ****  *    ...
 561:../Libmaple/libmaple/libmaple/timer.h ****  * }
 562:../Libmaple/libmaple/libmaple/timer.h ****  *
 563:../Libmaple/libmaple/libmaple/timer.h ****  * without the compiler yelling at us.
 564:../Libmaple/libmaple/libmaple/timer.h ****  */
 565:../Libmaple/libmaple/libmaple/timer.h **** 
 566:../Libmaple/libmaple/libmaple/timer.h **** void timer_init(timer_dev *dev);
 567:../Libmaple/libmaple/libmaple/timer.h **** void timer_disable(timer_dev *dev);
 568:../Libmaple/libmaple/libmaple/timer.h **** void timer_set_mode(timer_dev *dev, uint8 channel, timer_mode mode);
 569:../Libmaple/libmaple/libmaple/timer.h **** void timer_foreach(void (*fn)(timer_dev*));
 570:../Libmaple/libmaple/libmaple/timer.h **** 
 571:../Libmaple/libmaple/libmaple/timer.h **** /**
 572:../Libmaple/libmaple/libmaple/timer.h ****  * @brief Timer interrupt number.
 573:../Libmaple/libmaple/libmaple/timer.h ****  *
 574:../Libmaple/libmaple/libmaple/timer.h ****  * Not all timers support all of these values; see the descriptions
 575:../Libmaple/libmaple/libmaple/timer.h ****  * for each value.
 576:../Libmaple/libmaple/libmaple/timer.h ****  */
 577:../Libmaple/libmaple/libmaple/timer.h **** typedef enum timer_interrupt_id {
 578:../Libmaple/libmaple/libmaple/timer.h ****     TIMER_UPDATE_INTERRUPT, /**< Update interrupt, available on all timers. */
 579:../Libmaple/libmaple/libmaple/timer.h ****     TIMER_CC1_INTERRUPT, /**< Capture/compare 1 interrupt, available
 580:../Libmaple/libmaple/libmaple/timer.h ****                               on general and advanced timers only. */
 581:../Libmaple/libmaple/libmaple/timer.h ****     TIMER_CC2_INTERRUPT, /**< Capture/compare 2 interrupt, general and
 582:../Libmaple/libmaple/libmaple/timer.h ****                               advanced timers only. */
 583:../Libmaple/libmaple/libmaple/timer.h ****     TIMER_CC3_INTERRUPT, /**< Capture/compare 3 interrupt, general and
 584:../Libmaple/libmaple/libmaple/timer.h ****                               advanced timers only. */
 585:../Libmaple/libmaple/libmaple/timer.h ****     TIMER_CC4_INTERRUPT, /**< Capture/compare 4 interrupt, general and
 586:../Libmaple/libmaple/libmaple/timer.h ****                               advanced timers only. */
 587:../Libmaple/libmaple/libmaple/timer.h ****     TIMER_COM_INTERRUPT, /**< COM interrupt, advanced timers only */
 588:../Libmaple/libmaple/libmaple/timer.h ****     TIMER_TRG_INTERRUPT, /**< Trigger interrupt, general and advanced
 589:../Libmaple/libmaple/libmaple/timer.h ****                               timers only */
 590:../Libmaple/libmaple/libmaple/timer.h ****     TIMER_BREAK_INTERRUPT /**< Break interrupt, advanced timers only. */
 591:../Libmaple/libmaple/libmaple/timer.h **** } timer_interrupt_id;
 592:../Libmaple/libmaple/libmaple/timer.h **** 
 593:../Libmaple/libmaple/libmaple/timer.h **** void timer_attach_interrupt(timer_dev *dev,
 594:../Libmaple/libmaple/libmaple/timer.h ****                             uint8 interrupt,
 595:../Libmaple/libmaple/libmaple/timer.h ****                             voidFuncPtr handler);
 596:../Libmaple/libmaple/libmaple/timer.h **** void timer_detach_interrupt(timer_dev *dev, uint8 interrupt);
 597:../Libmaple/libmaple/libmaple/timer.h **** 
 598:../Libmaple/libmaple/libmaple/timer.h **** /**
 599:../Libmaple/libmaple/libmaple/timer.h ****  * Initialize all timer devices on the chip.
 600:../Libmaple/libmaple/libmaple/timer.h ****  */
 601:../Libmaple/libmaple/libmaple/timer.h **** static inline void timer_init_all(void) {
 602:../Libmaple/libmaple/libmaple/timer.h ****     timer_foreach(timer_init);
 603:../Libmaple/libmaple/libmaple/timer.h **** }
 604:../Libmaple/libmaple/libmaple/timer.h **** 
 605:../Libmaple/libmaple/libmaple/timer.h **** /**
 606:../Libmaple/libmaple/libmaple/timer.h ****  * Disables all timers on the device.
 607:../Libmaple/libmaple/libmaple/timer.h ****  */
 608:../Libmaple/libmaple/libmaple/timer.h **** static inline void timer_disable_all(void) {
 609:../Libmaple/libmaple/libmaple/timer.h ****     timer_foreach(timer_disable);
 610:../Libmaple/libmaple/libmaple/timer.h **** }
 611:../Libmaple/libmaple/libmaple/timer.h **** 
 612:../Libmaple/libmaple/libmaple/timer.h **** /**
 613:../Libmaple/libmaple/libmaple/timer.h ****  * @brief Stop a timer's counter from changing.
 614:../Libmaple/libmaple/libmaple/timer.h ****  *
 615:../Libmaple/libmaple/libmaple/timer.h ****  * Does not affect the timer's mode or other settings.
 616:../Libmaple/libmaple/libmaple/timer.h ****  *
 617:../Libmaple/libmaple/libmaple/timer.h ****  * @param dev Device whose counter to pause.
 618:../Libmaple/libmaple/libmaple/timer.h ****  */
 619:../Libmaple/libmaple/libmaple/timer.h **** static inline void timer_pause(timer_dev *dev) {
 620:../Libmaple/libmaple/libmaple/timer.h ****     *bb_perip(&(dev->regs).bas->CR1, TIMER_CR1_CEN_BIT) = 0;
 621:../Libmaple/libmaple/libmaple/timer.h **** }
 622:../Libmaple/libmaple/libmaple/timer.h **** 
 623:../Libmaple/libmaple/libmaple/timer.h **** /**
 624:../Libmaple/libmaple/libmaple/timer.h ****  * @brief Start a timer's counter.
 625:../Libmaple/libmaple/libmaple/timer.h ****  *
 626:../Libmaple/libmaple/libmaple/timer.h ****  * Does not affect the timer's mode or other settings.
 627:../Libmaple/libmaple/libmaple/timer.h ****  *
 628:../Libmaple/libmaple/libmaple/timer.h ****  * @param dev Device whose counter to resume
 629:../Libmaple/libmaple/libmaple/timer.h ****  */
 630:../Libmaple/libmaple/libmaple/timer.h **** static inline void timer_resume(timer_dev *dev) {
 631:../Libmaple/libmaple/libmaple/timer.h ****     *bb_perip(&(dev->regs).bas->CR1, TIMER_CR1_CEN_BIT) = 1;
 632:../Libmaple/libmaple/libmaple/timer.h **** }
 633:../Libmaple/libmaple/libmaple/timer.h **** 
 634:../Libmaple/libmaple/libmaple/timer.h **** /**
 635:../Libmaple/libmaple/libmaple/timer.h ****  * @brief Returns the timer's counter value.
 636:../Libmaple/libmaple/libmaple/timer.h ****  *
 637:../Libmaple/libmaple/libmaple/timer.h ****  * This value is likely to be inaccurate if the counter is running
 638:../Libmaple/libmaple/libmaple/timer.h ****  * with a low prescaler.
 639:../Libmaple/libmaple/libmaple/timer.h ****  *
 640:../Libmaple/libmaple/libmaple/timer.h ****  * @param dev Timer whose counter to return
 641:../Libmaple/libmaple/libmaple/timer.h ****  */
 642:../Libmaple/libmaple/libmaple/timer.h **** static inline uint16 timer_get_count(timer_dev *dev) {
 643:../Libmaple/libmaple/libmaple/timer.h ****     return (uint16)(dev->regs).bas->CNT;
 644:../Libmaple/libmaple/libmaple/timer.h **** }
 645:../Libmaple/libmaple/libmaple/timer.h **** 
 646:../Libmaple/libmaple/libmaple/timer.h **** /**
 647:../Libmaple/libmaple/libmaple/timer.h ****  * @brief Sets the counter value for the given timer.
 648:../Libmaple/libmaple/libmaple/timer.h ****  * @param dev Timer whose counter to set
 649:../Libmaple/libmaple/libmaple/timer.h ****  * @param value New counter value
 650:../Libmaple/libmaple/libmaple/timer.h ****  */
 651:../Libmaple/libmaple/libmaple/timer.h **** static inline void timer_set_count(timer_dev *dev, uint16 value) {
 652:../Libmaple/libmaple/libmaple/timer.h ****     (dev->regs).bas->CNT = value;
 653:../Libmaple/libmaple/libmaple/timer.h **** }
 654:../Libmaple/libmaple/libmaple/timer.h **** 
 655:../Libmaple/libmaple/libmaple/timer.h **** /**
 656:../Libmaple/libmaple/libmaple/timer.h ****  * @brief Returns the given timer's prescaler.
 657:../Libmaple/libmaple/libmaple/timer.h ****  *
 658:../Libmaple/libmaple/libmaple/timer.h ****  * Note that if the timer's prescaler is set (e.g. via
 659:../Libmaple/libmaple/libmaple/timer.h ****  * timer_set_prescaler() or accessing a TIMx_PSC register), the value
 660:../Libmaple/libmaple/libmaple/timer.h ****  * returned by this function will reflect the new setting, but the
 661:../Libmaple/libmaple/libmaple/timer.h ****  * timer's counter will only reflect the new prescaler at the next
 662:../Libmaple/libmaple/libmaple/timer.h ****  * update event.
 663:../Libmaple/libmaple/libmaple/timer.h ****  *
 664:../Libmaple/libmaple/libmaple/timer.h ****  * @param dev Timer whose prescaler to return
 665:../Libmaple/libmaple/libmaple/timer.h ****  * @see timer_generate_update()
 666:../Libmaple/libmaple/libmaple/timer.h ****  */
 667:../Libmaple/libmaple/libmaple/timer.h **** static inline uint16 timer_get_prescaler(timer_dev *dev) {
 668:../Libmaple/libmaple/libmaple/timer.h ****     return (uint16)(dev->regs).bas->PSC;
 669:../Libmaple/libmaple/libmaple/timer.h **** }
 670:../Libmaple/libmaple/libmaple/timer.h **** 
 671:../Libmaple/libmaple/libmaple/timer.h **** /**
 672:../Libmaple/libmaple/libmaple/timer.h ****  * @brief Set a timer's prescale value.
 673:../Libmaple/libmaple/libmaple/timer.h ****  *
 674:../Libmaple/libmaple/libmaple/timer.h ****  * Divides the input clock by (PSC+1).  The new value will not take
 675:../Libmaple/libmaple/libmaple/timer.h ****  * effect until the next update event.
 676:../Libmaple/libmaple/libmaple/timer.h ****  *
 677:../Libmaple/libmaple/libmaple/timer.h ****  * @param dev Timer whose prescaler to set
 678:../Libmaple/libmaple/libmaple/timer.h ****  * @param psc New prescaler value
 679:../Libmaple/libmaple/libmaple/timer.h ****  * @see timer_generate_update()
 680:../Libmaple/libmaple/libmaple/timer.h ****  */
 681:../Libmaple/libmaple/libmaple/timer.h **** static inline void timer_set_prescaler(timer_dev *dev, uint16 psc) {
 160              		.loc 3 681 0
 161              		.cfi_startproc
 162              		@ args = 0, pretend = 0, frame = 0
 163              		@ frame_needed = 0, uses_anonymous_args = 0
 164              		@ link register save eliminated.
 165              	.LVL5:
 682:../Libmaple/libmaple/libmaple/timer.h ****     (dev->regs).bas->PSC = psc;
 166              		.loc 3 682 0
 167 0000 8162     		str	r1, [r0, #40]
 683:../Libmaple/libmaple/libmaple/timer.h **** }
 168              		.loc 3 683 0
 169 0002 7047     		bx	lr
 170              		.cfi_endproc
 171              	.LFE249:
 173              		.section	.text.timer_set_reload.isra.1,"ax",%progbits
 174              		.align	1
 175              		.thumb
 176              		.thumb_func
 178              	timer_set_reload.isra.1:
 179              	.LFB250:
 684:../Libmaple/libmaple/libmaple/timer.h **** 
 685:../Libmaple/libmaple/libmaple/timer.h **** /**
 686:../Libmaple/libmaple/libmaple/timer.h ****  * @brief Returns a timer's reload value.
 687:../Libmaple/libmaple/libmaple/timer.h ****  * @param dev Timer whose reload value to return
 688:../Libmaple/libmaple/libmaple/timer.h ****  */
 689:../Libmaple/libmaple/libmaple/timer.h **** static inline uint16 timer_get_reload(timer_dev *dev) {
 690:../Libmaple/libmaple/libmaple/timer.h ****     return (uint16)(dev->regs).bas->ARR;
 691:../Libmaple/libmaple/libmaple/timer.h **** }
 692:../Libmaple/libmaple/libmaple/timer.h **** 
 693:../Libmaple/libmaple/libmaple/timer.h **** /**
 694:../Libmaple/libmaple/libmaple/timer.h ****  * @brief Set a timer's reload value.
 695:../Libmaple/libmaple/libmaple/timer.h ****  * @param dev Timer whose reload value to set
 696:../Libmaple/libmaple/libmaple/timer.h ****  * @param arr New reload value to use.  Takes effect at next update event.
 697:../Libmaple/libmaple/libmaple/timer.h ****  * @see timer_generate_update()
 698:../Libmaple/libmaple/libmaple/timer.h ****  */
 699:../Libmaple/libmaple/libmaple/timer.h **** static inline void timer_set_reload(timer_dev *dev, uint16 arr) {
 180              		.loc 3 699 0
 181              		.cfi_startproc
 182              		@ args = 0, pretend = 0, frame = 0
 183              		@ frame_needed = 0, uses_anonymous_args = 0
 184              		@ link register save eliminated.
 185              	.LVL6:
 700:../Libmaple/libmaple/libmaple/timer.h ****     (dev->regs).bas->ARR = arr;
 186              		.loc 3 700 0
 187 0000 C162     		str	r1, [r0, #44]
 701:../Libmaple/libmaple/libmaple/timer.h **** }
 188              		.loc 3 701 0
 189 0002 7047     		bx	lr
 190              		.cfi_endproc
 191              	.LFE250:
 193              		.section	.text.timer_set_compare.isra.2,"ax",%progbits
 194              		.align	1
 195              		.thumb
 196              		.thumb_func
 198              	timer_set_compare.isra.2:
 199              	.LFB251:
 702:../Libmaple/libmaple/libmaple/timer.h **** 
 703:../Libmaple/libmaple/libmaple/timer.h **** /**
 704:../Libmaple/libmaple/libmaple/timer.h ****  * @brief Get the compare value for the given timer channel.
 705:../Libmaple/libmaple/libmaple/timer.h ****  * @param dev Timer device, must have type TIMER_ADVANCED or TIMER_GENERAL.
 706:../Libmaple/libmaple/libmaple/timer.h ****  * @param channel Channel whose compare value to get.
 707:../Libmaple/libmaple/libmaple/timer.h ****  */
 708:../Libmaple/libmaple/libmaple/timer.h **** static inline uint16 timer_get_compare(timer_dev *dev, uint8 channel) {
 709:../Libmaple/libmaple/libmaple/timer.h ****     __io uint32 *ccr = &(dev->regs).gen->CCR1 + (channel - 1);
 710:../Libmaple/libmaple/libmaple/timer.h ****     return *ccr;
 711:../Libmaple/libmaple/libmaple/timer.h **** }
 712:../Libmaple/libmaple/libmaple/timer.h **** 
 713:../Libmaple/libmaple/libmaple/timer.h **** /**
 714:../Libmaple/libmaple/libmaple/timer.h ****  * @brief Set the compare value for the given timer channel.
 715:../Libmaple/libmaple/libmaple/timer.h ****  * @param dev Timer device, must have type TIMER_ADVANCED or TIMER_GENERAL.
 716:../Libmaple/libmaple/libmaple/timer.h ****  * @param channel Channel whose compare value to set.
 717:../Libmaple/libmaple/libmaple/timer.h ****  * @param value   New compare value.
 718:../Libmaple/libmaple/libmaple/timer.h ****  */
 719:../Libmaple/libmaple/libmaple/timer.h **** static inline void timer_set_compare(timer_dev *dev,
 200              		.loc 3 719 0
 201              		.cfi_startproc
 202              		@ args = 0, pretend = 0, frame = 0
 203              		@ frame_needed = 0, uses_anonymous_args = 0
 204              		@ link register save eliminated.
 205              	.LVL7:
 206              	.LBB13:
 720:../Libmaple/libmaple/libmaple/timer.h ****                                      uint8 channel,
 721:../Libmaple/libmaple/libmaple/timer.h ****                                      uint16 value) {
 722:../Libmaple/libmaple/libmaple/timer.h ****     __io uint32 *ccr = &(dev->regs).gen->CCR1 + (channel - 1);
 207              		.loc 3 722 0
 208 0000 3430     		adds	r0, r0, #52
 209 0002 0139     		subs	r1, r1, #1
 210              	.LVL8:
 723:../Libmaple/libmaple/libmaple/timer.h ****     *ccr = value;
 211              		.loc 3 723 0
 212 0004 40F82120 		str	r2, [r0, r1, lsl #2]
 213              	.LBE13:
 724:../Libmaple/libmaple/libmaple/timer.h **** }
 214              		.loc 3 724 0
 215 0008 7047     		bx	lr
 216              		.cfi_endproc
 217              	.LFE251:
 219              		.section	.text.timer_generate_update.isra.3,"ax",%progbits
 220              		.align	1
 221              		.thumb
 222              		.thumb_func
 224              	timer_generate_update.isra.3:
 225              	.LFB252:
 725:../Libmaple/libmaple/libmaple/timer.h **** 
 726:../Libmaple/libmaple/libmaple/timer.h **** /**
 727:../Libmaple/libmaple/libmaple/timer.h ****  * @brief Generate an update event for the given timer.
 728:../Libmaple/libmaple/libmaple/timer.h ****  *
 729:../Libmaple/libmaple/libmaple/timer.h ****  * Normally, this will cause the prescaler and auto-reload values in
 730:../Libmaple/libmaple/libmaple/timer.h ****  * the PSC and ARR registers to take immediate effect.  However, this
 731:../Libmaple/libmaple/libmaple/timer.h ****  * function will do nothing if the UDIS bit is set in the timer's CR1
 732:../Libmaple/libmaple/libmaple/timer.h ****  * register (UDIS is cleared by default).
 733:../Libmaple/libmaple/libmaple/timer.h ****  *
 734:../Libmaple/libmaple/libmaple/timer.h ****  * @param dev Timer device to generate an update for.
 735:../Libmaple/libmaple/libmaple/timer.h ****  */
 736:../Libmaple/libmaple/libmaple/timer.h **** static inline void timer_generate_update(timer_dev *dev) {
 226              		.loc 3 736 0
 227              		.cfi_startproc
 228              		@ args = 0, pretend = 0, frame = 0
 229              		@ frame_needed = 0, uses_anonymous_args = 0
 230              		@ link register save eliminated.
 231              	.LVL9:
 232              	.LBB18:
 233              	.LBB19:
 234              	.LBB20:
 235              	.LBB21:
 236              		.file 4 "../Libmaple/libmaple/libmaple/bitband.h"
   1:../Libmaple/libmaple/libmaple/bitband.h **** /******************************************************************************
   2:../Libmaple/libmaple/libmaple/bitband.h ****  * The MIT License
   3:../Libmaple/libmaple/libmaple/bitband.h ****  *
   4:../Libmaple/libmaple/libmaple/bitband.h ****  * Copyright (c) 2011 LeafLabs, LLC.
   5:../Libmaple/libmaple/libmaple/bitband.h ****  *
   6:../Libmaple/libmaple/libmaple/bitband.h ****  * Permission is hereby granted, free of charge, to any person
   7:../Libmaple/libmaple/libmaple/bitband.h ****  * obtaining a copy of this software and associated documentation
   8:../Libmaple/libmaple/libmaple/bitband.h ****  * files (the "Software"), to deal in the Software without
   9:../Libmaple/libmaple/libmaple/bitband.h ****  * restriction, including without limitation the rights to use, copy,
  10:../Libmaple/libmaple/libmaple/bitband.h ****  * modify, merge, publish, distribute, sublicense, and/or sell copies
  11:../Libmaple/libmaple/libmaple/bitband.h ****  * of the Software, and to permit persons to whom the Software is
  12:../Libmaple/libmaple/libmaple/bitband.h ****  * furnished to do so, subject to the following conditions:
  13:../Libmaple/libmaple/libmaple/bitband.h ****  *
  14:../Libmaple/libmaple/libmaple/bitband.h ****  * The above copyright notice and this permission notice shall be
  15:../Libmaple/libmaple/libmaple/bitband.h ****  * included in all copies or substantial portions of the Software.
  16:../Libmaple/libmaple/libmaple/bitband.h ****  *
  17:../Libmaple/libmaple/libmaple/bitband.h ****  * THE SOFTWARE IS PROVIDED "AS IS", WITHOUT WARRANTY OF ANY KIND,
  18:../Libmaple/libmaple/libmaple/bitband.h ****  * EXPRESS OR IMPLIED, INCLUDING BUT NOT LIMITED TO THE WARRANTIES OF
  19:../Libmaple/libmaple/libmaple/bitband.h ****  * MERCHANTABILITY, FITNESS FOR A PARTICULAR PURPOSE AND
  20:../Libmaple/libmaple/libmaple/bitband.h ****  * NONINFRINGEMENT. IN NO EVENT SHALL THE AUTHORS OR COPYRIGHT HOLDERS
  21:../Libmaple/libmaple/libmaple/bitband.h ****  * BE LIABLE FOR ANY CLAIM, DAMAGES OR OTHER LIABILITY, WHETHER IN AN
  22:../Libmaple/libmaple/libmaple/bitband.h ****  * ACTION OF CONTRACT, TORT OR OTHERWISE, ARISING FROM, OUT OF OR IN
  23:../Libmaple/libmaple/libmaple/bitband.h ****  * CONNECTION WITH THE SOFTWARE OR THE USE OR OTHER DEALINGS IN THE
  24:../Libmaple/libmaple/libmaple/bitband.h ****  * SOFTWARE.
  25:../Libmaple/libmaple/libmaple/bitband.h ****  *****************************************************************************/
  26:../Libmaple/libmaple/libmaple/bitband.h **** 
  27:../Libmaple/libmaple/libmaple/bitband.h **** /**
  28:../Libmaple/libmaple/libmaple/bitband.h ****  * @file bitband.h
  29:../Libmaple/libmaple/libmaple/bitband.h ****  *
  30:../Libmaple/libmaple/libmaple/bitband.h ****  * @brief Bit-banding utility functions
  31:../Libmaple/libmaple/libmaple/bitband.h ****  */
  32:../Libmaple/libmaple/libmaple/bitband.h **** 
  33:../Libmaple/libmaple/libmaple/bitband.h **** #include "libmaple_types.h"
  34:../Libmaple/libmaple/libmaple/bitband.h **** 
  35:../Libmaple/libmaple/libmaple/bitband.h **** #ifndef _BITBAND_H_
  36:../Libmaple/libmaple/libmaple/bitband.h **** #define _BITBAND_H_
  37:../Libmaple/libmaple/libmaple/bitband.h **** 
  38:../Libmaple/libmaple/libmaple/bitband.h **** #define BB_SRAM_REF      0x20000000
  39:../Libmaple/libmaple/libmaple/bitband.h **** #define BB_SRAM_BASE     0x22000000
  40:../Libmaple/libmaple/libmaple/bitband.h **** #define BB_PERI_REF      0x40000000
  41:../Libmaple/libmaple/libmaple/bitband.h **** #define BB_PERI_BASE     0x42000000
  42:../Libmaple/libmaple/libmaple/bitband.h **** 
  43:../Libmaple/libmaple/libmaple/bitband.h **** static inline volatile uint32* __bb_addr(volatile void*,
  44:../Libmaple/libmaple/libmaple/bitband.h ****                                          uint32,
  45:../Libmaple/libmaple/libmaple/bitband.h ****                                          uint32,
  46:../Libmaple/libmaple/libmaple/bitband.h ****                                          uint32);
  47:../Libmaple/libmaple/libmaple/bitband.h **** 
  48:../Libmaple/libmaple/libmaple/bitband.h **** /**
  49:../Libmaple/libmaple/libmaple/bitband.h ****  * @brief Obtain a pointer to the bit-band address corresponding to a
  50:../Libmaple/libmaple/libmaple/bitband.h ****  * bit in a volatile SRAM address.
  51:../Libmaple/libmaple/libmaple/bitband.h ****  * @param address Address in the bit-banded SRAM region
  52:../Libmaple/libmaple/libmaple/bitband.h ****  * @param bit     Bit in address to bit-band
  53:../Libmaple/libmaple/libmaple/bitband.h ****  */
  54:../Libmaple/libmaple/libmaple/bitband.h **** static inline volatile uint32* bb_sramp(volatile void *address, uint32 bit) {
  55:../Libmaple/libmaple/libmaple/bitband.h ****     return __bb_addr(address, bit, BB_SRAM_BASE, BB_SRAM_REF);
  56:../Libmaple/libmaple/libmaple/bitband.h **** }
  57:../Libmaple/libmaple/libmaple/bitband.h **** 
  58:../Libmaple/libmaple/libmaple/bitband.h **** /**
  59:../Libmaple/libmaple/libmaple/bitband.h ****  * @brief Get a bit from an address in the SRAM bit-band region.
  60:../Libmaple/libmaple/libmaple/bitband.h ****  * @param address Address in the SRAM bit-band region to read from
  61:../Libmaple/libmaple/libmaple/bitband.h ****  * @param bit Bit in address to read
  62:../Libmaple/libmaple/libmaple/bitband.h ****  * @return bit's value in address.
  63:../Libmaple/libmaple/libmaple/bitband.h ****  */
  64:../Libmaple/libmaple/libmaple/bitband.h **** static inline uint8 bb_sram_get_bit(volatile void *address, uint32 bit) {
  65:../Libmaple/libmaple/libmaple/bitband.h ****     return *bb_sramp(address, bit);
  66:../Libmaple/libmaple/libmaple/bitband.h **** }
  67:../Libmaple/libmaple/libmaple/bitband.h **** 
  68:../Libmaple/libmaple/libmaple/bitband.h **** /**
  69:../Libmaple/libmaple/libmaple/bitband.h ****  * @brief Set a bit in an address in the SRAM bit-band region.
  70:../Libmaple/libmaple/libmaple/bitband.h ****  * @param address Address in the SRAM bit-band region to write to
  71:../Libmaple/libmaple/libmaple/bitband.h ****  * @param bit Bit in address to write to
  72:../Libmaple/libmaple/libmaple/bitband.h ****  * @param val Value to write for bit, either 0 or 1.
  73:../Libmaple/libmaple/libmaple/bitband.h ****  */
  74:../Libmaple/libmaple/libmaple/bitband.h **** static inline void bb_sram_set_bit(volatile void *address,
  75:../Libmaple/libmaple/libmaple/bitband.h ****                                    uint32 bit,
  76:../Libmaple/libmaple/libmaple/bitband.h ****                                    uint8 val) {
  77:../Libmaple/libmaple/libmaple/bitband.h ****     *bb_sramp(address, bit) = val;
  78:../Libmaple/libmaple/libmaple/bitband.h **** }
  79:../Libmaple/libmaple/libmaple/bitband.h **** 
  80:../Libmaple/libmaple/libmaple/bitband.h **** /**
  81:../Libmaple/libmaple/libmaple/bitband.h ****  * @brief Obtain a pointer to the bit-band address corresponding to a
  82:../Libmaple/libmaple/libmaple/bitband.h ****  * bit in a peripheral address.
  83:../Libmaple/libmaple/libmaple/bitband.h ****  * @param address Address in the bit-banded peripheral region
  84:../Libmaple/libmaple/libmaple/bitband.h ****  * @param bit     Bit in address to bit-band
  85:../Libmaple/libmaple/libmaple/bitband.h ****  */
  86:../Libmaple/libmaple/libmaple/bitband.h **** static inline volatile uint32* bb_perip(volatile void *address, uint32 bit) {
  87:../Libmaple/libmaple/libmaple/bitband.h ****     return __bb_addr(address, bit, BB_PERI_BASE, BB_PERI_REF);
  88:../Libmaple/libmaple/libmaple/bitband.h **** }
  89:../Libmaple/libmaple/libmaple/bitband.h **** 
  90:../Libmaple/libmaple/libmaple/bitband.h **** /**
  91:../Libmaple/libmaple/libmaple/bitband.h ****  * @brief Get a bit from an address in the peripheral bit-band region.
  92:../Libmaple/libmaple/libmaple/bitband.h ****  * @param address Address in the peripheral bit-band region to read from
  93:../Libmaple/libmaple/libmaple/bitband.h ****  * @param bit Bit in address to read
  94:../Libmaple/libmaple/libmaple/bitband.h ****  * @return bit's value in address.
  95:../Libmaple/libmaple/libmaple/bitband.h ****  */
  96:../Libmaple/libmaple/libmaple/bitband.h **** static inline uint8 bb_peri_get_bit(volatile void *address, uint32 bit) {
  97:../Libmaple/libmaple/libmaple/bitband.h ****     return *bb_perip(address, bit);
  98:../Libmaple/libmaple/libmaple/bitband.h **** }
  99:../Libmaple/libmaple/libmaple/bitband.h **** 
 100:../Libmaple/libmaple/libmaple/bitband.h **** /**
 101:../Libmaple/libmaple/libmaple/bitband.h ****  * @brief Set a bit in an address in the peripheral bit-band region.
 102:../Libmaple/libmaple/libmaple/bitband.h ****  * @param address Address in the peripheral bit-band region to write to
 103:../Libmaple/libmaple/libmaple/bitband.h ****  * @param bit Bit in address to write to
 104:../Libmaple/libmaple/libmaple/bitband.h ****  * @param val Value to write for bit, either 0 or 1.
 105:../Libmaple/libmaple/libmaple/bitband.h ****  */
 106:../Libmaple/libmaple/libmaple/bitband.h **** static inline void bb_peri_set_bit(volatile void *address,
 107:../Libmaple/libmaple/libmaple/bitband.h ****                                    uint32 bit,
 108:../Libmaple/libmaple/libmaple/bitband.h ****                                    uint8 val) {
 109:../Libmaple/libmaple/libmaple/bitband.h ****     *bb_perip(address, bit) = val;
 110:../Libmaple/libmaple/libmaple/bitband.h **** }
 111:../Libmaple/libmaple/libmaple/bitband.h **** 
 112:../Libmaple/libmaple/libmaple/bitband.h **** static inline volatile uint32* __bb_addr(volatile void *address,
 113:../Libmaple/libmaple/libmaple/bitband.h ****                                          uint32 bit,
 114:../Libmaple/libmaple/libmaple/bitband.h ****                                          uint32 bb_base,
 115:../Libmaple/libmaple/libmaple/bitband.h ****                                          uint32 bb_ref) {
 116:../Libmaple/libmaple/libmaple/bitband.h ****     return (volatile uint32*)(bb_base + ((uint32)address - bb_ref) * 32 +
 117:../Libmaple/libmaple/libmaple/bitband.h ****                               bit * 4);
 237              		.loc 4 117 0
 238 0000 4101     		lsls	r1, r0, #5
 239 0002 01F18440 		add	r0, r1, #1107296256
 240              	.LBE21:
 241              	.LBE20:
 242              	.LBE19:
 243              	.LBE18:
 737:../Libmaple/libmaple/libmaple/timer.h ****     *bb_perip(&(dev->regs).bas->EGR, TIMER_EGR_UG_BIT) = 1;
 244              		.loc 3 737 0
 245 0006 0123     		movs	r3, #1
 246 0008 C0F88032 		str	r3, [r0, #640]
 738:../Libmaple/libmaple/libmaple/timer.h **** }
 247              		.loc 3 738 0
 248 000c 7047     		bx	lr
 249              		.cfi_endproc
 250              	.LFE252:
 252              		.section	.text.startup._Z7premainv,"ax",%progbits
 253              		.align	1
 254              		.global	_Z7premainv
 255              		.thumb
 256              		.thumb_func
 258              	_Z7premainv:
 259              	.LFB114:
 260              		.file 5 "/home/james/AeroQuad/AeroQuad32/AeroQuadMain.cpp"
   1:/home/james/AeroQuad/AeroQuad32/AeroQuadMain.cpp **** #include <../AeroQuad/UserConfiguration.h>
   2:/home/james/AeroQuad/AeroQuad32/AeroQuadMain.cpp **** #include <SerialMapping.h>
   3:/home/james/AeroQuad/AeroQuad32/AeroQuadMain.cpp **** #include <WProgram.h>
   4:/home/james/AeroQuad/AeroQuad32/AeroQuadMain.cpp **** 
   5:/home/james/AeroQuad/AeroQuad32/AeroQuadMain.cpp **** __attribute__(( constructor )) void premain() {
 261              		.loc 5 5 0
 262              		.cfi_startproc
 263              		@ args = 0, pretend = 0, frame = 0
 264              		@ frame_needed = 0, uses_anonymous_args = 0
 265              		@ link register save eliminated.
   6:/home/james/AeroQuad/AeroQuad32/AeroQuadMain.cpp ****     init();
   7:/home/james/AeroQuad/AeroQuad32/AeroQuadMain.cpp **** }
 266              		.loc 5 7 0
   6:/home/james/AeroQuad/AeroQuad32/AeroQuadMain.cpp ****     init();
 267              		.loc 5 6 0
 268 0000 FFF7FEBF 		b	_Z4initv
 269              		.cfi_endproc
 270              	.LFE114:
 272              		.section	.init_array,"aw",%init_array
 273              		.align	2
 274 0000 00000000 		.word	_Z7premainv(target1)
 275              		.section	.text._init,"ax",%progbits
 276              		.align	1
 277              		.global	_init
 278              		.thumb
 279              		.thumb_func
 281              	_init:
 282              	.LFB115:
   8:/home/james/AeroQuad/AeroQuad32/AeroQuadMain.cpp **** 
   9:/home/james/AeroQuad/AeroQuad32/AeroQuadMain.cpp **** extern "C"{
  10:/home/james/AeroQuad/AeroQuad32/AeroQuadMain.cpp ****         void _init(){};
 283              		.loc 5 10 0
 284              		.cfi_startproc
 285              		@ args = 0, pretend = 0, frame = 0
 286              		@ frame_needed = 0, uses_anonymous_args = 0
 287              		@ link register save eliminated.
 288              		.loc 5 10 0
 289 0000 7047     		bx	lr
 290              		.cfi_endproc
 291              	.LFE115:
 293              		.section	.text._Z23initializeReceiverParami,"ax",%progbits
 294              		.align	1
 295              		.global	_Z23initializeReceiverParami
 296              		.thumb
 297              		.thumb_func
 299              	_Z23initializeReceiverParami:
 300              	.LFB123:
 301              		.file 6 "../Libraries/AQ_Receiver/Receiver.h"
   1:../Libraries/AQ_Receiver/Receiver.h **** /*
   2:../Libraries/AQ_Receiver/Receiver.h ****   AeroQuad v3.0.1 - February 2012
   3:../Libraries/AQ_Receiver/Receiver.h ****   www.AeroQuad.com
   4:../Libraries/AQ_Receiver/Receiver.h ****   Copyright (c) 2012 Ted Carancho.  All rights reserved.
   5:../Libraries/AQ_Receiver/Receiver.h ****   An Open Source Arduino based multicopter.
   6:../Libraries/AQ_Receiver/Receiver.h ****  
   7:../Libraries/AQ_Receiver/Receiver.h ****   This program is free software: you can redistribute it and/or modify 
   8:../Libraries/AQ_Receiver/Receiver.h ****   it under the terms of the GNU General Public License as published by 
   9:../Libraries/AQ_Receiver/Receiver.h ****   the Free Software Foundation, either version 3 of the License, or 
  10:../Libraries/AQ_Receiver/Receiver.h ****   (at your option) any later version. 
  11:../Libraries/AQ_Receiver/Receiver.h **** 
  12:../Libraries/AQ_Receiver/Receiver.h ****   This program is distributed in the hope that it will be useful, 
  13:../Libraries/AQ_Receiver/Receiver.h ****   but WITHOUT ANY WARRANTY; without even the implied warranty of 
  14:../Libraries/AQ_Receiver/Receiver.h ****   MERCHANTABILITY or FITNESS FOR A PARTICULAR PURPOSE. See the 
  15:../Libraries/AQ_Receiver/Receiver.h ****   GNU General Public License for more details. 
  16:../Libraries/AQ_Receiver/Receiver.h **** 
  17:../Libraries/AQ_Receiver/Receiver.h ****   You should have received a copy of the GNU General Public License 
  18:../Libraries/AQ_Receiver/Receiver.h ****   along with this program. If not, see <http://www.gnu.org/licenses/>. 
  19:../Libraries/AQ_Receiver/Receiver.h **** */
  20:../Libraries/AQ_Receiver/Receiver.h **** 
  21:../Libraries/AQ_Receiver/Receiver.h **** #ifndef _AEROQUAD_RECEIVER_H_
  22:../Libraries/AQ_Receiver/Receiver.h **** #define _AEROQUAD_RECEIVER_H_
  23:../Libraries/AQ_Receiver/Receiver.h **** 
  24:../Libraries/AQ_Receiver/Receiver.h **** #include "Arduino.h"
  25:../Libraries/AQ_Receiver/Receiver.h **** 
  26:../Libraries/AQ_Receiver/Receiver.h **** #define PWM2RAD 0.002 //  Based upon 5RAD for full stick movement, you take this times the RAD to g
  27:../Libraries/AQ_Receiver/Receiver.h **** 
  28:../Libraries/AQ_Receiver/Receiver.h **** // Receiver variables
  29:../Libraries/AQ_Receiver/Receiver.h **** #define TIMEOUT 25000
  30:../Libraries/AQ_Receiver/Receiver.h **** #define MINCOMMAND 1000
  31:../Libraries/AQ_Receiver/Receiver.h **** #define MIDCOMMAND 1500
  32:../Libraries/AQ_Receiver/Receiver.h **** #define MAXCOMMAND 2000
  33:../Libraries/AQ_Receiver/Receiver.h **** #define MINDELTA 200
  34:../Libraries/AQ_Receiver/Receiver.h **** #define MINCHECK (MINCOMMAND + 100)
  35:../Libraries/AQ_Receiver/Receiver.h **** #define MAXCHECK (MAXCOMMAND - 100)
  36:../Libraries/AQ_Receiver/Receiver.h **** #define MINTHROTTLE (MINCOMMAND + 100)
  37:../Libraries/AQ_Receiver/Receiver.h **** #define LEVELOFF 100
  38:../Libraries/AQ_Receiver/Receiver.h **** #define MAX_NB_CHANNEL 10
  39:../Libraries/AQ_Receiver/Receiver.h **** 
  40:../Libraries/AQ_Receiver/Receiver.h **** int lastReceiverChannel = 0;
  41:../Libraries/AQ_Receiver/Receiver.h **** 
  42:../Libraries/AQ_Receiver/Receiver.h **** float receiverXmitFactor = 0.0;
  43:../Libraries/AQ_Receiver/Receiver.h **** int receiverData[MAX_NB_CHANNEL] = {0,0,0,0,0,0,0,0,0,0};
  44:../Libraries/AQ_Receiver/Receiver.h **** int receiverZero[3] = {0,0,0};
  45:../Libraries/AQ_Receiver/Receiver.h **** int receiverCommand[MAX_NB_CHANNEL] = {0,0,0,0,0,0,0,0,0,0};
  46:../Libraries/AQ_Receiver/Receiver.h **** int receiverCommandSmooth[MAX_NB_CHANNEL] = {0,0,0,0,0,0,0,0,0,0,};
  47:../Libraries/AQ_Receiver/Receiver.h **** float receiverSlope[MAX_NB_CHANNEL] = {0.0,0.0,0.0,0.0,0.0,0.0,0.0,0.0,0.0,0.0};
  48:../Libraries/AQ_Receiver/Receiver.h **** float receiverOffset[MAX_NB_CHANNEL] = {0.0,0.0,0.0,0.0,0.0,0.0,0.0,0.0,0.0,0.0};
  49:../Libraries/AQ_Receiver/Receiver.h **** float receiverSmoothFactor[MAX_NB_CHANNEL] = {0.0,0.0,0.0,0.0,0.0,0.0,0.0,0.0,0.0,0.0};
  50:../Libraries/AQ_Receiver/Receiver.h **** int channelCal;
  51:../Libraries/AQ_Receiver/Receiver.h **** 
  52:../Libraries/AQ_Receiver/Receiver.h **** void initializeReceiverParam(int nbChannel = 6) {
 302              		.loc 6 52 0
 303              		.cfi_startproc
 304              		@ args = 0, pretend = 0, frame = 0
 305              		@ frame_needed = 0, uses_anonymous_args = 0
 306              		@ link register save eliminated.
 307              	.LVL10:
 308              	.LBB22:
  53:../Libraries/AQ_Receiver/Receiver.h ****   
  54:../Libraries/AQ_Receiver/Receiver.h ****   lastReceiverChannel = nbChannel;
 309              		.loc 6 54 0
 310 0000 254A     		ldr	r2, .L28
  55:../Libraries/AQ_Receiver/Receiver.h **** 
  56:../Libraries/AQ_Receiver/Receiver.h ****   receiverCommand[XAXIS] = 1500;
 311              		.loc 6 56 0
 312 0002 264B     		ldr	r3, .L28+4
  54:../Libraries/AQ_Receiver/Receiver.h ****   lastReceiverChannel = nbChannel;
 313              		.loc 6 54 0
 314 0004 1060     		str	r0, [r2, #0]
 315              		.loc 6 56 0
 316 0006 40F2DC51 		movw	r1, #1500
  57:../Libraries/AQ_Receiver/Receiver.h ****   receiverCommand[YAXIS] = 1500;
  58:../Libraries/AQ_Receiver/Receiver.h ****   receiverCommand[ZAXIS] = 1500;
  59:../Libraries/AQ_Receiver/Receiver.h ****   receiverCommand[THROTTLE] = 1000;
 317              		.loc 6 59 0
 318 000a 4FF47A72 		mov	r2, #1000
  56:../Libraries/AQ_Receiver/Receiver.h ****   receiverCommand[XAXIS] = 1500;
 319              		.loc 6 56 0
 320 000e 1960     		str	r1, [r3, #0]
  57:../Libraries/AQ_Receiver/Receiver.h ****   receiverCommand[YAXIS] = 1500;
 321              		.loc 6 57 0
 322 0010 5960     		str	r1, [r3, #4]
  58:../Libraries/AQ_Receiver/Receiver.h ****   receiverCommand[ZAXIS] = 1500;
 323              		.loc 6 58 0
 324 0012 9960     		str	r1, [r3, #8]
 325              		.loc 6 59 0
 326 0014 DA60     		str	r2, [r3, #12]
  60:../Libraries/AQ_Receiver/Receiver.h ****   receiverCommand[MODE] = 1000;
 327              		.loc 6 60 0
 328 0016 1A61     		str	r2, [r3, #16]
  61:../Libraries/AQ_Receiver/Receiver.h ****   receiverCommand[AUX1] = 1000;
 329              		.loc 6 61 0
 330 0018 5A61     		str	r2, [r3, #20]
  62:../Libraries/AQ_Receiver/Receiver.h ****   receiverCommand[AUX2] = 1000;
 331              		.loc 6 62 0
 332 001a 9A61     		str	r2, [r3, #24]
  63:../Libraries/AQ_Receiver/Receiver.h ****   receiverCommand[AUX3] = 1000;
 333              		.loc 6 63 0
 334 001c DA61     		str	r2, [r3, #28]
  64:../Libraries/AQ_Receiver/Receiver.h ****   receiverCommand[AUX4] = 1000;
 335              		.loc 6 64 0
 336 001e 1A62     		str	r2, [r3, #32]
  65:../Libraries/AQ_Receiver/Receiver.h ****   receiverCommand[AUX5] = 1000;
 337              		.loc 6 65 0
 338 0020 5A62     		str	r2, [r3, #36]
 339              	.LVL11:
 340              	.LBB23:
  66:../Libraries/AQ_Receiver/Receiver.h ****   
  67:../Libraries/AQ_Receiver/Receiver.h ****   for (byte channel = XAXIS; channel < lastReceiverChannel; channel++) {
 341              		.loc 6 67 0
 342 0022 0023     		movs	r3, #0
 343 0024 07E0     		b	.L20
 344              	.LVL12:
 345              	.L21:
  68:../Libraries/AQ_Receiver/Receiver.h ****     receiverCommandSmooth[channel] = 1.0;
 346              		.loc 6 68 0 discriminator 2
 347 0026 0121     		movs	r1, #1
 348 0028 1D4A     		ldr	r2, .L28+8
  67:../Libraries/AQ_Receiver/Receiver.h ****   for (byte channel = XAXIS; channel < lastReceiverChannel; channel++) {
 349              		.loc 6 67 0 discriminator 2
 350 002a 03EB010C 		add	ip, r3, r1
 351              		.loc 6 68 0 discriminator 2
 352 002e 42F82310 		str	r1, [r2, r3, lsl #2]
  67:../Libraries/AQ_Receiver/Receiver.h ****   for (byte channel = XAXIS; channel < lastReceiverChannel; channel++) {
 353              		.loc 6 67 0 discriminator 2
 354 0032 5FFA8CF3 		uxtb	r3, ip
 355              	.LVL13:
 356              	.L20:
  67:../Libraries/AQ_Receiver/Receiver.h ****   for (byte channel = XAXIS; channel < lastReceiverChannel; channel++) {
 357              		.loc 6 67 0 is_stmt 0 discriminator 1
 358 0036 8342     		cmp	r3, r0
 359 0038 F5DB     		blt	.L21
 360              	.LVL14:
 361              	.LBE23:
 362              	.LBB24:
  69:../Libraries/AQ_Receiver/Receiver.h ****   }
  70:../Libraries/AQ_Receiver/Receiver.h ****   for (byte channel = XAXIS; channel < THROTTLE; channel++) {
  71:../Libraries/AQ_Receiver/Receiver.h ****     receiverZero[channel] = 1500;
 363              		.loc 6 71 0 is_stmt 1 discriminator 1
 364 003a 1A4B     		ldr	r3, .L28+12
 365              	.LVL15:
 366 003c 40F2DC51 		movw	r1, #1500
 367 0040 1960     		str	r1, [r3, #0]
 368              	.LVL16:
 369 0042 5960     		str	r1, [r3, #4]
 370              	.LVL17:
 371 0044 9960     		str	r1, [r3, #8]
 372              	.LVL18:
 373 0046 0023     		movs	r3, #0
 374 0048 08E0     		b	.L22
 375              	.LVL19:
 376              	.L23:
 377              	.LBE24:
 378              	.LBB25:
  72:../Libraries/AQ_Receiver/Receiver.h ****   }
  73:../Libraries/AQ_Receiver/Receiver.h **** 	
  74:../Libraries/AQ_Receiver/Receiver.h ****   for (byte channel = XAXIS; channel < lastReceiverChannel; channel++) {
  75:../Libraries/AQ_Receiver/Receiver.h ****     receiverSlope[channel] = 1;
 379              		.loc 6 75 0 discriminator 2
 380 004a 174A     		ldr	r2, .L28+16
 381 004c 02EB8301 		add	r1, r2, r3, lsl #2
 382 0050 4FF07E5C 		mov	ip, #1065353216
  74:../Libraries/AQ_Receiver/Receiver.h ****   for (byte channel = XAXIS; channel < lastReceiverChannel; channel++) {
 383              		.loc 6 74 0 discriminator 2
 384 0054 5A1C     		adds	r2, r3, #1
 385              		.loc 6 75 0 discriminator 2
 386 0056 C1F800C0 		str	ip, [r1, #0]	@ float
  74:../Libraries/AQ_Receiver/Receiver.h ****   for (byte channel = XAXIS; channel < lastReceiverChannel; channel++) {
 387              		.loc 6 74 0 discriminator 2
 388 005a D3B2     		uxtb	r3, r2
 389              	.LVL20:
 390              	.L22:
  74:../Libraries/AQ_Receiver/Receiver.h ****   for (byte channel = XAXIS; channel < lastReceiverChannel; channel++) {
 391              		.loc 6 74 0 is_stmt 0 discriminator 1
 392 005c 8342     		cmp	r3, r0
 393 005e F4DB     		blt	.L23
  74:../Libraries/AQ_Receiver/Receiver.h ****   for (byte channel = XAXIS; channel < lastReceiverChannel; channel++) {
 394              		.loc 6 74 0
 395 0060 0023     		movs	r3, #0
 396              	.LVL21:
 397 0062 08E0     		b	.L24
 398              	.LVL22:
 399              	.L25:
 400              	.LBE25:
 401              	.LBB26:
  76:../Libraries/AQ_Receiver/Receiver.h ****   }	
  77:../Libraries/AQ_Receiver/Receiver.h ****   for (byte channel = XAXIS; channel < lastReceiverChannel; channel++) {
  78:../Libraries/AQ_Receiver/Receiver.h ****     receiverOffset[channel] = 1;
 402              		.loc 6 78 0 is_stmt 1 discriminator 2
 403 0064 114A     		ldr	r2, .L28+20
 404 0066 02EB8301 		add	r1, r2, r3, lsl #2
 405 006a 4FF07E5C 		mov	ip, #1065353216
  77:../Libraries/AQ_Receiver/Receiver.h ****   for (byte channel = XAXIS; channel < lastReceiverChannel; channel++) {
 406              		.loc 6 77 0 discriminator 2
 407 006e 0133     		adds	r3, r3, #1
 408              	.LVL23:
 409              		.loc 6 78 0 discriminator 2
 410 0070 C1F800C0 		str	ip, [r1, #0]	@ float
  77:../Libraries/AQ_Receiver/Receiver.h ****   for (byte channel = XAXIS; channel < lastReceiverChannel; channel++) {
 411              		.loc 6 77 0 discriminator 2
 412 0074 DBB2     		uxtb	r3, r3
 413              	.LVL24:
 414              	.L24:
  77:../Libraries/AQ_Receiver/Receiver.h ****   for (byte channel = XAXIS; channel < lastReceiverChannel; channel++) {
 415              		.loc 6 77 0 is_stmt 0 discriminator 1
 416 0076 8342     		cmp	r3, r0
 417 0078 F4DB     		blt	.L25
  77:../Libraries/AQ_Receiver/Receiver.h ****   for (byte channel = XAXIS; channel < lastReceiverChannel; channel++) {
 418              		.loc 6 77 0
 419 007a 0023     		movs	r3, #0
 420              	.LVL25:
 421 007c 08E0     		b	.L26
 422              	.LVL26:
 423              	.L27:
 424              	.LBE26:
 425              	.LBB27:
  79:../Libraries/AQ_Receiver/Receiver.h ****   }
  80:../Libraries/AQ_Receiver/Receiver.h ****   for (byte channel = XAXIS; channel < lastReceiverChannel; channel++) {
  81:../Libraries/AQ_Receiver/Receiver.h ****     receiverSmoothFactor[channel] = 1; 
 426              		.loc 6 81 0 is_stmt 1 discriminator 2
 427 007e 0C4A     		ldr	r2, .L28+24
 428 0080 02EB8301 		add	r1, r2, r3, lsl #2
 429 0084 4FF07E5C 		mov	ip, #1065353216
  80:../Libraries/AQ_Receiver/Receiver.h ****   for (byte channel = XAXIS; channel < lastReceiverChannel; channel++) {
 430              		.loc 6 80 0 discriminator 2
 431 0088 0133     		adds	r3, r3, #1
 432              	.LVL27:
 433              		.loc 6 81 0 discriminator 2
 434 008a C1F800C0 		str	ip, [r1, #0]	@ float
  80:../Libraries/AQ_Receiver/Receiver.h ****   for (byte channel = XAXIS; channel < lastReceiverChannel; channel++) {
 435              		.loc 6 80 0 discriminator 2
 436 008e DBB2     		uxtb	r3, r3
 437              	.LVL28:
 438              	.L26:
  80:../Libraries/AQ_Receiver/Receiver.h ****   for (byte channel = XAXIS; channel < lastReceiverChannel; channel++) {
 439              		.loc 6 80 0 is_stmt 0 discriminator 1
 440 0090 8342     		cmp	r3, r0
 441 0092 F4DB     		blt	.L27
 442              	.LBE27:
 443              	.LBE22:
  82:../Libraries/AQ_Receiver/Receiver.h ****   }
  83:../Libraries/AQ_Receiver/Receiver.h **** }
 444              		.loc 6 83 0 is_stmt 1
 445 0094 7047     		bx	lr
 446              	.L29:
 447 0096 00BF     		.align	2
 448              	.L28:
 449 0098 00000000 		.word	.LANCHOR0
 450 009c 00000000 		.word	.LANCHOR1
 451 00a0 00000000 		.word	.LANCHOR2
 452 00a4 00000000 		.word	.LANCHOR3
 453 00a8 00000000 		.word	.LANCHOR4
 454 00ac 00000000 		.word	.LANCHOR5
 455 00b0 00000000 		.word	.LANCHOR6
 456              		.cfi_endproc
 457              	.LFE123:
 459              		.section	.text._Z17getReceiverSIDatah,"ax",%progbits
 460              		.align	1
 461              		.global	_Z17getReceiverSIDatah
 462              		.thumb
 463              		.thumb_func
 465              	_Z17getReceiverSIDatah:
 466              	.LFB125:
  84:../Libraries/AQ_Receiver/Receiver.h ****   
  85:../Libraries/AQ_Receiver/Receiver.h **** int getRawChannelValue(byte channel);  
  86:../Libraries/AQ_Receiver/Receiver.h **** void readReceiver();
  87:../Libraries/AQ_Receiver/Receiver.h ****   
  88:../Libraries/AQ_Receiver/Receiver.h **** void readReceiver()
  89:../Libraries/AQ_Receiver/Receiver.h **** {
  90:../Libraries/AQ_Receiver/Receiver.h ****   for(byte channel = XAXIS; channel < lastReceiverChannel; channel++) {
  91:../Libraries/AQ_Receiver/Receiver.h **** 
  92:../Libraries/AQ_Receiver/Receiver.h ****     // Apply receiver calibration adjustment
  93:../Libraries/AQ_Receiver/Receiver.h ****     receiverData[channel] = (receiverSlope[channel] * getRawChannelValue(channel)) + receiverOffset
  94:../Libraries/AQ_Receiver/Receiver.h ****     // Smooth the flight control receiver inputs
  95:../Libraries/AQ_Receiver/Receiver.h ****     receiverCommandSmooth[channel] = filterSmooth(receiverData[channel], receiverCommandSmooth[chan
  96:../Libraries/AQ_Receiver/Receiver.h ****   }
  97:../Libraries/AQ_Receiver/Receiver.h ****   
  98:../Libraries/AQ_Receiver/Receiver.h ****   // Reduce receiver commands using receiverXmitFactor and center around 1500
  99:../Libraries/AQ_Receiver/Receiver.h ****   for (byte channel = XAXIS; channel < THROTTLE; channel++) {
 100:../Libraries/AQ_Receiver/Receiver.h ****     receiverCommand[channel] = ((receiverCommandSmooth[channel] - receiverZero[channel]) * receiver
 101:../Libraries/AQ_Receiver/Receiver.h ****   }	
 102:../Libraries/AQ_Receiver/Receiver.h ****   // No xmitFactor reduction applied for throttle, mode and AUX
 103:../Libraries/AQ_Receiver/Receiver.h ****   for (byte channel = THROTTLE; channel < lastReceiverChannel; channel++) {
 104:../Libraries/AQ_Receiver/Receiver.h ****     receiverCommand[channel] = receiverCommandSmooth[channel];
 105:../Libraries/AQ_Receiver/Receiver.h ****   }
 106:../Libraries/AQ_Receiver/Receiver.h **** }
 107:../Libraries/AQ_Receiver/Receiver.h **** 
 108:../Libraries/AQ_Receiver/Receiver.h **** 
 109:../Libraries/AQ_Receiver/Receiver.h **** void setChannelValue(byte channel,int value);
 110:../Libraries/AQ_Receiver/Receiver.h ****   
 111:../Libraries/AQ_Receiver/Receiver.h **** // return the smoothed & scaled number of radians/sec in stick movement - zero centered
 112:../Libraries/AQ_Receiver/Receiver.h **** const float getReceiverSIData(byte channel) {
 467              		.loc 6 112 0
 468              		.cfi_startproc
 469              		@ args = 0, pretend = 0, frame = 0
 470              		@ frame_needed = 0, uses_anonymous_args = 0
 471              		@ link register save eliminated.
 472              	.LVL29:
 113:../Libraries/AQ_Receiver/Receiver.h ****   return ((receiverCommand[channel] - receiverZero[channel]) * (2.5 * PWM2RAD));  // +/- 2.5RPS 50%
 473              		.loc 6 113 0
 474 0000 0849     		ldr	r1, .L31
 475 0002 094B     		ldr	r3, .L31+4
 476 0004 51F82020 		ldr	r2, [r1, r0, lsl #2]
 477 0008 53F82010 		ldr	r1, [r3, r0, lsl #2]
 478 000c 531A     		subs	r3, r2, r1
 479 000e 00EE103A 		fmsr	s0, r3	@ int
 114:../Libraries/AQ_Receiver/Receiver.h **** }
 480              		.loc 6 114 0
 481 0012 DFED067A 		flds	s15, .L31+8
 113:../Libraries/AQ_Receiver/Receiver.h ****   return ((receiverCommand[channel] - receiverZero[channel]) * (2.5 * PWM2RAD));  // +/- 2.5RPS 50%
 482              		.loc 6 113 0
 483 0016 B8EEC07A 		fsitos	s14, s0
 484              		.loc 6 114 0
 485 001a 67EE276A 		fmuls	s13, s14, s15
 486 001e 16EE900A 		fmrs	r0, s13
 487              	.LVL30:
 488 0022 7047     		bx	lr
 489              	.L32:
 490              		.align	2
 491              	.L31:
 492 0024 00000000 		.word	.LANCHOR1
 493 0028 00000000 		.word	.LANCHOR3
 494 002c 0BD7A33B 		.word	1000593163
 495              		.cfi_endproc
 496              	.LFE125:
 498              		.section	.text._Z9updatePIDffP7PIDdata,"ax",%progbits
 499              		.align	1
 500              		.global	_Z9updatePIDffP7PIDdata
 501              		.thumb
 502              		.thumb_func
 504              	_Z9updatePIDffP7PIDdata:
 505              	.LFB126:
 506              		.file 7 "/home/james/AeroQuad/AeroQuad32/../AeroQuad/PID.h"
   1:/home/james/AeroQuad/AeroQuad32/../AeroQuad/PID.h **** /*
   2:/home/james/AeroQuad/AeroQuad32/../AeroQuad/PID.h ****   AeroQuad v3.0.1 - February 2012
   3:/home/james/AeroQuad/AeroQuad32/../AeroQuad/PID.h ****   www.AeroQuad.com
   4:/home/james/AeroQuad/AeroQuad32/../AeroQuad/PID.h ****   Copyright (c) 2012 Ted Carancho.  All rights reserved.
   5:/home/james/AeroQuad/AeroQuad32/../AeroQuad/PID.h ****   An Open Source Arduino based multicopter.
   6:/home/james/AeroQuad/AeroQuad32/../AeroQuad/PID.h ****  
   7:/home/james/AeroQuad/AeroQuad32/../AeroQuad/PID.h ****   This program is free software: you can redistribute it and/or modify 
   8:/home/james/AeroQuad/AeroQuad32/../AeroQuad/PID.h ****   it under the terms of the GNU General Public License as published by 
   9:/home/james/AeroQuad/AeroQuad32/../AeroQuad/PID.h ****   the Free Software Foundation, either version 3 of the License, or 
  10:/home/james/AeroQuad/AeroQuad32/../AeroQuad/PID.h ****   (at your option) any later version. 
  11:/home/james/AeroQuad/AeroQuad32/../AeroQuad/PID.h **** 
  12:/home/james/AeroQuad/AeroQuad32/../AeroQuad/PID.h ****   This program is distributed in the hope that it will be useful, 
  13:/home/james/AeroQuad/AeroQuad32/../AeroQuad/PID.h ****   but WITHOUT ANY WARRANTY; without even the implied warranty of 
  14:/home/james/AeroQuad/AeroQuad32/../AeroQuad/PID.h ****   MERCHANTABILITY or FITNESS FOR A PARTICULAR PURPOSE. See the 
  15:/home/james/AeroQuad/AeroQuad32/../AeroQuad/PID.h ****   GNU General Public License for more details. 
  16:/home/james/AeroQuad/AeroQuad32/../AeroQuad/PID.h **** 
  17:/home/james/AeroQuad/AeroQuad32/../AeroQuad/PID.h ****   You should have received a copy of the GNU General Public License 
  18:/home/james/AeroQuad/AeroQuad32/../AeroQuad/PID.h ****   along with this program. If not, see <http://www.gnu.org/licenses/>. 
  19:/home/james/AeroQuad/AeroQuad32/../AeroQuad/PID.h **** */
  20:/home/james/AeroQuad/AeroQuad32/../AeroQuad/PID.h **** 
  21:/home/james/AeroQuad/AeroQuad32/../AeroQuad/PID.h **** #ifndef _AQ_PID_H_
  22:/home/james/AeroQuad/AeroQuad32/../AeroQuad/PID.h **** #define _AQ_PID_H_
  23:/home/james/AeroQuad/AeroQuad32/../AeroQuad/PID.h **** 
  24:/home/james/AeroQuad/AeroQuad32/../AeroQuad/PID.h **** enum {
  25:/home/james/AeroQuad/AeroQuad32/../AeroQuad/PID.h ****   RATE_XAXIS_PID_IDX = 0,
  26:/home/james/AeroQuad/AeroQuad32/../AeroQuad/PID.h ****   RATE_YAXIS_PID_IDX,
  27:/home/james/AeroQuad/AeroQuad32/../AeroQuad/PID.h ****   ZAXIS_PID_IDX,
  28:/home/james/AeroQuad/AeroQuad32/../AeroQuad/PID.h ****   ATTITUDE_XAXIS_PID_IDX,
  29:/home/james/AeroQuad/AeroQuad32/../AeroQuad/PID.h ****   ATTITUDE_YAXIS_PID_IDX,
  30:/home/james/AeroQuad/AeroQuad32/../AeroQuad/PID.h ****   HEADING_HOLD_PID_IDX,
  31:/home/james/AeroQuad/AeroQuad32/../AeroQuad/PID.h ****   ATTITUDE_GYRO_XAXIS_PID_IDX,
  32:/home/james/AeroQuad/AeroQuad32/../AeroQuad/PID.h ****   ATTITUDE_GYRO_YAXIS_PID_IDX,
  33:/home/james/AeroQuad/AeroQuad32/../AeroQuad/PID.h ****   #if defined AltitudeHoldBaro || defined AltitudeHoldRangeFinder
  34:/home/james/AeroQuad/AeroQuad32/../AeroQuad/PID.h ****     BARO_ALTITUDE_HOLD_PID_IDX,
  35:/home/james/AeroQuad/AeroQuad32/../AeroQuad/PID.h ****     ZDAMPENING_PID_IDX,
  36:/home/james/AeroQuad/AeroQuad32/../AeroQuad/PID.h ****   #endif
  37:/home/james/AeroQuad/AeroQuad32/../AeroQuad/PID.h ****   #if defined AltitudeHoldRangeFinder
  38:/home/james/AeroQuad/AeroQuad32/../AeroQuad/PID.h ****     SONAR_ALTITUDE_HOLD_PID_IDX,
  39:/home/james/AeroQuad/AeroQuad32/../AeroQuad/PID.h ****   #endif
  40:/home/james/AeroQuad/AeroQuad32/../AeroQuad/PID.h ****   #if defined UseGPSNavigator
  41:/home/james/AeroQuad/AeroQuad32/../AeroQuad/PID.h ****     GPSPITCH_PID_IDX,
  42:/home/james/AeroQuad/AeroQuad32/../AeroQuad/PID.h ****     GPSROLL_PID_IDX,
  43:/home/james/AeroQuad/AeroQuad32/../AeroQuad/PID.h ****     GPSYAW_PID_IDX,
  44:/home/james/AeroQuad/AeroQuad32/../AeroQuad/PID.h ****   #endif    
  45:/home/james/AeroQuad/AeroQuad32/../AeroQuad/PID.h **** 
  46:/home/james/AeroQuad/AeroQuad32/../AeroQuad/PID.h ****   LAST_PID_IDX  // keep this definition at the end of this enum
  47:/home/james/AeroQuad/AeroQuad32/../AeroQuad/PID.h **** };
  48:/home/james/AeroQuad/AeroQuad32/../AeroQuad/PID.h **** 
  49:/home/james/AeroQuad/AeroQuad32/../AeroQuad/PID.h **** //// PID Variables
  50:/home/james/AeroQuad/AeroQuad32/../AeroQuad/PID.h **** struct PIDdata {
  51:/home/james/AeroQuad/AeroQuad32/../AeroQuad/PID.h ****   float P, I, D;
  52:/home/james/AeroQuad/AeroQuad32/../AeroQuad/PID.h ****   float lastError;
  53:/home/james/AeroQuad/AeroQuad32/../AeroQuad/PID.h ****   // AKA experiments with PID
  54:/home/james/AeroQuad/AeroQuad32/../AeroQuad/PID.h ****   float previousPIDTime;
  55:/home/james/AeroQuad/AeroQuad32/../AeroQuad/PID.h ****   float integratedError;
  56:/home/james/AeroQuad/AeroQuad32/../AeroQuad/PID.h ****   float windupGuard; // Thinking about having individual wind up guards for each PID
  57:/home/james/AeroQuad/AeroQuad32/../AeroQuad/PID.h **** } PID[LAST_PID_IDX];
  58:/home/james/AeroQuad/AeroQuad32/../AeroQuad/PID.h **** 
  59:/home/james/AeroQuad/AeroQuad32/../AeroQuad/PID.h **** // This struct above declares the variable PID[] to hold each of the PID values for various functio
  60:/home/james/AeroQuad/AeroQuad32/../AeroQuad/PID.h **** // The following constants are declared in AeroQuad.h
  61:/home/james/AeroQuad/AeroQuad32/../AeroQuad/PID.h **** // ROLL = 0, PITCH = 1, YAW = 2 (used for Arcobatic Mode, gyros only)
  62:/home/james/AeroQuad/AeroQuad32/../AeroQuad/PID.h **** // ROLLLEVEL = 3, PITCHLEVEL = 4, LEVELGYROROLL = 6, LEVELGYROPITCH = 7 (used for Stable Mode, acce
  63:/home/james/AeroQuad/AeroQuad32/../AeroQuad/PID.h **** // HEADING = 5 (used for heading hold)
  64:/home/james/AeroQuad/AeroQuad32/../AeroQuad/PID.h **** // ALTITUDE = 8 (used for altitude hold)
  65:/home/james/AeroQuad/AeroQuad32/../AeroQuad/PID.h **** // ZDAMPENING = 9 (used in altitude hold to dampen vertical accelerations)
  66:/home/james/AeroQuad/AeroQuad32/../AeroQuad/PID.h **** float windupGuard; // Read in from EEPROM
  67:/home/james/AeroQuad/AeroQuad32/../AeroQuad/PID.h **** //// Modified from http://www.arduino.cc/playground/Main/BarebonesPIDForEspresso
  68:/home/james/AeroQuad/AeroQuad32/../AeroQuad/PID.h **** float updatePID(float targetPosition, float currentPosition, struct PIDdata *PIDparameters) {
 507              		.loc 7 68 0
 508              		.cfi_startproc
 509              		@ args = 0, pretend = 0, frame = 0
 510              		@ frame_needed = 0, uses_anonymous_args = 0
 511              		@ link register save eliminated.
 512              	.LVL31:
 513              	.LBB28:
  69:/home/james/AeroQuad/AeroQuad32/../AeroQuad/PID.h **** 
  70:/home/james/AeroQuad/AeroQuad32/../AeroQuad/PID.h ****   // AKA PID experiments
  71:/home/james/AeroQuad/AeroQuad32/../AeroQuad/PID.h ****   const float deltaPIDTime = (currentTime - PIDparameters->previousPIDTime) / 1000000.0;
 514              		.loc 7 71 0
 515 0000 2A4B     		ldr	r3, .L40
 516              	.LBE28:
  68:/home/james/AeroQuad/AeroQuad32/../AeroQuad/PID.h **** float updatePID(float targetPosition, float currentPosition, struct PIDdata *PIDparameters) {
 517              		.loc 7 68 0
 518 0002 07EE101A 		fmsr	s14, r1
 519              	.LBB29:
 520              		.loc 7 71 0
 521 0006 1968     		ldr	r1, [r3, #0]
 522              	.LVL32:
 523 0008 01EE101A 		fmsr	s2, r1	@ int
 524 000c D2ED040A 		flds	s1, [r2, #16]
 525 0010 B8EE410A 		fuitos	s0, s2
  72:/home/james/AeroQuad/AeroQuad32/../AeroQuad/PID.h **** 
  73:/home/james/AeroQuad/AeroQuad32/../AeroQuad/PID.h ****   PIDparameters->previousPIDTime = currentTime;  // AKA PID experiments
  74:/home/james/AeroQuad/AeroQuad32/../AeroQuad/PID.h ****   float error = targetPosition - currentPosition;
 526              		.loc 7 74 0
 527 0014 07EE900A 		fmsr	s15, r0
  75:/home/james/AeroQuad/AeroQuad32/../AeroQuad/PID.h **** 
  76:/home/james/AeroQuad/AeroQuad32/../AeroQuad/PID.h ****   if (inFlight) {
 528              		.loc 7 76 0
 529 0018 2548     		ldr	r0, .L40+4
 530              	.LVL33:
  71:/home/james/AeroQuad/AeroQuad32/../AeroQuad/PID.h ****   const float deltaPIDTime = (currentTime - PIDparameters->previousPIDTime) / 1000000.0;
 531              		.loc 7 71 0
 532 001a 30EE606A 		fsubs	s12, s0, s1
 533 001e DFED256A 		flds	s13, .L40+8
 534              		.loc 7 76 0
 535 0022 0378     		ldrb	r3, [r0, #0]	@ zero_extendqisi2
  71:/home/james/AeroQuad/AeroQuad32/../AeroQuad/PID.h ****   const float deltaPIDTime = (currentTime - PIDparameters->previousPIDTime) / 1000000.0;
 536              		.loc 7 71 0
 537 0024 86EE265A 		fdivs	s10, s12, s13
 538              	.LVL34:
  73:/home/james/AeroQuad/AeroQuad32/../AeroQuad/PID.h ****   PIDparameters->previousPIDTime = currentTime;  // AKA PID experiments
 539              		.loc 7 73 0
 540 0028 82ED040A 		fsts	s0, [r2, #16]
  74:/home/james/AeroQuad/AeroQuad32/../AeroQuad/PID.h ****   float error = targetPosition - currentPosition;
 541              		.loc 7 74 0
 542 002c 77EEC75A 		fsubs	s11, s15, s14
 543              	.LVL35:
 544              		.loc 7 76 0
 545 0030 33B1     		cbz	r3, .L34
  77:/home/james/AeroQuad/AeroQuad32/../AeroQuad/PID.h ****     PIDparameters->integratedError += error * deltaPIDTime;
 546              		.loc 7 77 0
 547 0032 D2ED051A 		flds	s3, [r2, #20]
 548 0036 45EE851A 		fmacs	s3, s11, s10
 549 003a C2ED051A 		fsts	s3, [r2, #20]
 550 003e 01E0     		b	.L35
 551              	.L34:
  78:/home/james/AeroQuad/AeroQuad32/../AeroQuad/PID.h ****   }
  79:/home/james/AeroQuad/AeroQuad32/../AeroQuad/PID.h ****   else {
  80:/home/james/AeroQuad/AeroQuad32/../AeroQuad/PID.h ****     PIDparameters->integratedError = 0.0;
 552              		.loc 7 80 0
 553 0040 0020     		movs	r0, #0
 554 0042 5061     		str	r0, [r2, #20]	@ float
 555              	.L35:
  81:/home/james/AeroQuad/AeroQuad32/../AeroQuad/PID.h ****   }
  82:/home/james/AeroQuad/AeroQuad32/../AeroQuad/PID.h ****   PIDparameters->integratedError = constrain(PIDparameters->integratedError, -PIDparameters->windup
 556              		.loc 7 82 0
 557 0044 D2ED066A 		flds	s13, [r2, #24]
 558 0048 92ED056A 		flds	s12, [r2, #20]
 559 004c F1EE667A 		fnegs	s15, s13
 560              	.LVL36:
 561 0050 B4EEE76A 		fcmpes	s12, s15
 562 0054 F1EE10FA 		fmstat
 563 0058 08D4     		bmi	.L36
 564              		.loc 7 82 0 is_stmt 0 discriminator 2
 565 005a B4EE666A 		fcmps	s12, s13
 566 005e F1EE10FA 		fmstat
 567 0062 CCBF     		ite	gt
 568 0064 F0EE667A 		fcpysgt	s15, s13
 569 0068 F0EE467A 		fcpysle	s15, s12
 570              	.L36:
  83:/home/james/AeroQuad/AeroQuad32/../AeroQuad/PID.h ****   float dTerm = PIDparameters->D * (currentPosition - PIDparameters->lastError) / (deltaPIDTime * 1
 571              		.loc 7 83 0 is_stmt 1 discriminator 6
 572 006c D2ED034A 		flds	s9, [r2, #12]
 573 0070 92ED024A 		flds	s8, [r2, #8]
 574 0074 77EE643A 		fsubs	s7, s14, s9
 575 0078 DFED0F2A 		flds	s5, .L40+12
 576 007c 63EE843A 		fmuls	s7, s7, s8
 577 0080 65EE222A 		fmuls	s5, s10, s5
  84:/home/james/AeroQuad/AeroQuad32/../AeroQuad/PID.h ****   PIDparameters->lastError = currentPosition;
  85:/home/james/AeroQuad/AeroQuad32/../AeroQuad/PID.h **** 
  86:/home/james/AeroQuad/AeroQuad32/../AeroQuad/PID.h ****   return (PIDparameters->P * error) + (PIDparameters->I * PIDparameters->integratedError) + dTerm;
 578              		.loc 7 86 0 discriminator 6
 579 0084 92ED013A 		flds	s6, [r2, #4]
  83:/home/james/AeroQuad/AeroQuad32/../AeroQuad/PID.h ****   float dTerm = PIDparameters->D * (currentPosition - PIDparameters->lastError) / (deltaPIDTime * 1
 580              		.loc 7 83 0 discriminator 6
 581 0088 C3EEA22A 		fdivs	s5, s7, s5
 582              	.LVL37:
  84:/home/james/AeroQuad/AeroQuad32/../AeroQuad/PID.h ****   PIDparameters->lastError = currentPosition;
 583              		.loc 7 84 0 discriminator 6
 584 008c 82ED037A 		fsts	s14, [r2, #12]
 585              		.loc 7 86 0 discriminator 6
 586 0090 92ED007A 		flds	s14, [r2, #0]
 587              	.LVL38:
  82:/home/james/AeroQuad/AeroQuad32/../AeroQuad/PID.h ****   PIDparameters->integratedError = constrain(PIDparameters->integratedError, -PIDparameters->windup
 588              		.loc 7 82 0 discriminator 6
 589 0094 C2ED057A 		fsts	s15, [r2, #20]
 590              		.loc 7 86 0 discriminator 6
 591 0098 67EE837A 		fmuls	s15, s15, s6
 592 009c 45EE877A 		fmacs	s15, s11, s14
 593              	.LBE29:
  87:/home/james/AeroQuad/AeroQuad32/../AeroQuad/PID.h **** }
 594              		.loc 7 87 0 discriminator 6
 595 00a0 37EEA22A 		fadds	s4, s15, s5
 596 00a4 12EE100A 		fmrs	r0, s4
 597 00a8 7047     		bx	lr
 598              	.L41:
 599 00aa 00BF     		.align	2
 600              	.L40:
 601 00ac 00000000 		.word	.LANCHOR7
 602 00b0 00000000 		.word	.LANCHOR8
 603 00b4 00247449 		.word	1232348160
 604 00b8 0000C842 		.word	1120403456
 605              		.cfi_endproc
 606              	.LFE126:
 608              		.section	.text._Z17zeroIntegralErrorv,"ax",%progbits
 609              		.align	1
 610              		.global	_Z17zeroIntegralErrorv
 611              		.thumb
 612              		.thumb_func
 614              	_Z17zeroIntegralErrorv:
 615              	.LFB127:
  88:/home/james/AeroQuad/AeroQuad32/../AeroQuad/PID.h **** 
  89:/home/james/AeroQuad/AeroQuad32/../AeroQuad/PID.h **** void zeroIntegralError() __attribute__ ((noinline));
  90:/home/james/AeroQuad/AeroQuad32/../AeroQuad/PID.h **** void zeroIntegralError() {
 616              		.loc 7 90 0
 617              		.cfi_startproc
 618              		@ args = 0, pretend = 0, frame = 0
 619              		@ frame_needed = 0, uses_anonymous_args = 0
 620              		@ link register save eliminated.
 621              	.LVL39:
 622              	.LBB30:
  91:/home/james/AeroQuad/AeroQuad32/../AeroQuad/PID.h ****   for (byte axis = 0; axis <= ATTITUDE_YAXIS_PID_IDX; axis++) {
  92:/home/james/AeroQuad/AeroQuad32/../AeroQuad/PID.h ****     PID[axis].integratedError = 0;
  93:/home/james/AeroQuad/AeroQuad32/../AeroQuad/PID.h ****     PID[axis].previousPIDTime = currentTime;
 623              		.loc 7 93 0
 624 0000 0C49     		ldr	r1, .L43
  92:/home/james/AeroQuad/AeroQuad32/../AeroQuad/PID.h ****     PID[axis].integratedError = 0;
 625              		.loc 7 92 0
 626 0002 0D4B     		ldr	r3, .L43+4
 627              		.loc 7 93 0
 628 0004 0868     		ldr	r0, [r1, #0]
 629 0006 07EE100A 		fmsr	s14, r0	@ int
 630 000a F8EE477A 		fuitos	s15, s14
  92:/home/james/AeroQuad/AeroQuad32/../AeroQuad/PID.h ****     PID[axis].integratedError = 0;
 631              		.loc 7 92 0
 632 000e 0022     		movs	r2, #0
 633 0010 5A61     		str	r2, [r3, #20]	@ float
 634              		.loc 7 93 0
 635 0012 C3ED047A 		fsts	s15, [r3, #16]
 636              	.LVL40:
  92:/home/james/AeroQuad/AeroQuad32/../AeroQuad/PID.h ****     PID[axis].integratedError = 0;
 637              		.loc 7 92 0
 638 0016 1A63     		str	r2, [r3, #48]	@ float
 639              		.loc 7 93 0
 640 0018 C3ED0B7A 		fsts	s15, [r3, #44]
 641              	.LVL41:
  92:/home/james/AeroQuad/AeroQuad32/../AeroQuad/PID.h ****     PID[axis].integratedError = 0;
 642              		.loc 7 92 0
 643 001c DA64     		str	r2, [r3, #76]	@ float
 644              		.loc 7 93 0
 645 001e C3ED127A 		fsts	s15, [r3, #72]
 646              	.LVL42:
  92:/home/james/AeroQuad/AeroQuad32/../AeroQuad/PID.h ****     PID[axis].integratedError = 0;
 647              		.loc 7 92 0
 648 0022 9A66     		str	r2, [r3, #104]	@ float
 649              		.loc 7 93 0
 650 0024 C3ED197A 		fsts	s15, [r3, #100]
 651              	.LVL43:
  92:/home/james/AeroQuad/AeroQuad32/../AeroQuad/PID.h ****     PID[axis].integratedError = 0;
 652              		.loc 7 92 0
 653 0028 C3F88420 		str	r2, [r3, #132]	@ float
 654              		.loc 7 93 0
 655 002c C3ED207A 		fsts	s15, [r3, #128]
 656              	.LVL44:
 657              	.LBE30:
  94:/home/james/AeroQuad/AeroQuad32/../AeroQuad/PID.h ****   }
  95:/home/james/AeroQuad/AeroQuad32/../AeroQuad/PID.h **** }
 658              		.loc 7 95 0
 659 0030 7047     		bx	lr
 660              	.L44:
 661 0032 00BF     		.align	2
 662              	.L43:
 663 0034 00000000 		.word	.LANCHOR7
 664 0038 00000000 		.word	.LANCHOR9
 665              		.cfi_endproc
 666              	.LFE127:
 668              		.section	.text._Z18computeFourthOrderfP15fourthOrderData,"ax",%progbits
 669              		.align	1
 670              		.global	_Z18computeFourthOrderfP15fourthOrderData
 671              		.thumb
 672              		.thumb_func
 674              	_Z18computeFourthOrderfP15fourthOrderData:
 675              	.LFB128:
 676              		.file 8 "../Libraries/AQ_Math/FourtOrderFilter.h"
   1:../Libraries/AQ_Math/FourtOrderFilter.h **** /*
   2:../Libraries/AQ_Math/FourtOrderFilter.h ****   AeroQuad v3.0.1 - February 2012
   3:../Libraries/AQ_Math/FourtOrderFilter.h ****   www.AeroQuad.com
   4:../Libraries/AQ_Math/FourtOrderFilter.h ****   Copyright (c) 2012 Ted Carancho.  All rights reserved.
   5:../Libraries/AQ_Math/FourtOrderFilter.h ****   An Open Source Arduino based multicopter.
   6:../Libraries/AQ_Math/FourtOrderFilter.h ****  
   7:../Libraries/AQ_Math/FourtOrderFilter.h ****   This program is free software: you can redistribute it and/or modify 
   8:../Libraries/AQ_Math/FourtOrderFilter.h ****   it under the terms of the GNU General Public License as published by 
   9:../Libraries/AQ_Math/FourtOrderFilter.h ****   the Free Software Foundation, either version 3 of the License, or 
  10:../Libraries/AQ_Math/FourtOrderFilter.h ****   (at your option) any later version. 
  11:../Libraries/AQ_Math/FourtOrderFilter.h **** 
  12:../Libraries/AQ_Math/FourtOrderFilter.h ****   This program is distributed in the hope that it will be useful, 
  13:../Libraries/AQ_Math/FourtOrderFilter.h ****   but WITHOUT ANY WARRANTY; without even the implied warranty of 
  14:../Libraries/AQ_Math/FourtOrderFilter.h ****   MERCHANTABILITY or FITNESS FOR A PARTICULAR PURPOSE. See the 
  15:../Libraries/AQ_Math/FourtOrderFilter.h ****   GNU General Public License for more details. 
  16:../Libraries/AQ_Math/FourtOrderFilter.h **** 
  17:../Libraries/AQ_Math/FourtOrderFilter.h ****   You should have received a copy of the GNU General Public License 
  18:../Libraries/AQ_Math/FourtOrderFilter.h ****   along with this program. If not, see <http://www.gnu.org/licenses/>. 
  19:../Libraries/AQ_Math/FourtOrderFilter.h **** */
  20:../Libraries/AQ_Math/FourtOrderFilter.h **** 
  21:../Libraries/AQ_Math/FourtOrderFilter.h **** #ifndef _AQ_FOURTH_ORDER_FILTER_H_
  22:../Libraries/AQ_Math/FourtOrderFilter.h **** #define _AQ_FOURTH_ORDER_FILTER_H_
  23:../Libraries/AQ_Math/FourtOrderFilter.h **** 
  24:../Libraries/AQ_Math/FourtOrderFilter.h **** ////////////////////////////////////////////////////////////////////////////////
  25:../Libraries/AQ_Math/FourtOrderFilter.h **** //
  26:../Libraries/AQ_Math/FourtOrderFilter.h **** //
  27:../Libraries/AQ_Math/FourtOrderFilter.h **** ////////////////////////////////////////////////////////////////////////////////
  28:../Libraries/AQ_Math/FourtOrderFilter.h **** 
  29:../Libraries/AQ_Math/FourtOrderFilter.h **** #include <GlobalDefined.h>
  30:../Libraries/AQ_Math/FourtOrderFilter.h **** 
  31:../Libraries/AQ_Math/FourtOrderFilter.h **** 
  32:../Libraries/AQ_Math/FourtOrderFilter.h **** struct fourthOrderData
  33:../Libraries/AQ_Math/FourtOrderFilter.h **** {
  34:../Libraries/AQ_Math/FourtOrderFilter.h ****   float  inputTm1,  inputTm2,  inputTm3,  inputTm4;
  35:../Libraries/AQ_Math/FourtOrderFilter.h ****   float outputTm1, outputTm2, outputTm3, outputTm4;
  36:../Libraries/AQ_Math/FourtOrderFilter.h **** } fourthOrder[4];
  37:../Libraries/AQ_Math/FourtOrderFilter.h **** 
  38:../Libraries/AQ_Math/FourtOrderFilter.h **** float computeFourthOrder(float currentInput, struct fourthOrderData *filterParameters)
  39:../Libraries/AQ_Math/FourtOrderFilter.h **** {
 677              		.loc 8 39 0
 678              		.cfi_startproc
 679              		@ args = 0, pretend = 0, frame = 0
 680              		@ frame_needed = 0, uses_anonymous_args = 0
 681              		@ link register save eliminated.
 682              	.LVL45:
 683              	.LBB31:
  40:../Libraries/AQ_Math/FourtOrderFilter.h ****   // cheby2(4,60,12.5/50)
  41:../Libraries/AQ_Math/FourtOrderFilter.h ****   #define _b0  0.001893594048567
  42:../Libraries/AQ_Math/FourtOrderFilter.h ****   #define _b1 -0.002220262954039
  43:../Libraries/AQ_Math/FourtOrderFilter.h ****   #define _b2  0.003389066536478
  44:../Libraries/AQ_Math/FourtOrderFilter.h ****   #define _b3 -0.002220262954039
  45:../Libraries/AQ_Math/FourtOrderFilter.h ****   #define _b4  0.001893594048567
  46:../Libraries/AQ_Math/FourtOrderFilter.h ****   
  47:../Libraries/AQ_Math/FourtOrderFilter.h ****   #define _a1 -3.362256889209355
  48:../Libraries/AQ_Math/FourtOrderFilter.h ****   #define _a2  4.282608240117919
  49:../Libraries/AQ_Math/FourtOrderFilter.h ****   #define _a3 -2.444765517272841
  50:../Libraries/AQ_Math/FourtOrderFilter.h ****   #define _a4  0.527149895089809
  51:../Libraries/AQ_Math/FourtOrderFilter.h ****   
  52:../Libraries/AQ_Math/FourtOrderFilter.h ****   float output;
  53:../Libraries/AQ_Math/FourtOrderFilter.h ****   
  54:../Libraries/AQ_Math/FourtOrderFilter.h ****   output = _b0 * currentInput                + 
  55:../Libraries/AQ_Math/FourtOrderFilter.h ****            _b1 * filterParameters->inputTm1  + 
  56:../Libraries/AQ_Math/FourtOrderFilter.h ****            _b2 * filterParameters->inputTm2  +
  57:../Libraries/AQ_Math/FourtOrderFilter.h ****            _b3 * filterParameters->inputTm3  +
  58:../Libraries/AQ_Math/FourtOrderFilter.h ****            _b4 * filterParameters->inputTm4  -
  59:../Libraries/AQ_Math/FourtOrderFilter.h ****            _a1 * filterParameters->outputTm1 -
  60:../Libraries/AQ_Math/FourtOrderFilter.h ****            _a2 * filterParameters->outputTm2 -
  61:../Libraries/AQ_Math/FourtOrderFilter.h ****            _a3 * filterParameters->outputTm3 -
  62:../Libraries/AQ_Math/FourtOrderFilter.h ****            _a4 * filterParameters->outputTm4;
 684              		.loc 8 62 0
 685 0000 91ED005A 		flds	s10, [r1, #0]
 686 0004 9FED203A 		flds	s6, .L46
 687              	.LBE31:
  39:../Libraries/AQ_Math/FourtOrderFilter.h **** {
 688              		.loc 8 39 0
 689 0008 05EE900A 		fmsr	s11, r0
 690              	.LBB32:
 691              		.loc 8 62 0
 692 000c 9FED1F2A 		flds	s4, .L46+4
 693 0010 65EE037A 		fmuls	s15, s10, s6
 694 0014 45EE827A 		fmacs	s15, s11, s4
 695 0018 D1ED014A 		flds	s9, [r1, #4]
 696 001c DFED1C2A 		flds	s5, .L46+8
 697 0020 44EEA27A 		fmacs	s15, s9, s5
 698 0024 91ED024A 		flds	s8, [r1, #8]
 699 0028 44EE037A 		fmacs	s15, s8, s6
 700 002c D1ED031A 		flds	s3, [r1, #12]
 701 0030 41EE827A 		fmacs	s15, s3, s4
 702 0034 91ED047A 		flds	s14, [r1, #16]
 703 0038 9FED161A 		flds	s2, .L46+12
 704 003c 47EE017A 		fmacs	s15, s14, s2
 705 0040 D1ED056A 		flds	s13, [r1, #20]
 706 0044 DFED140A 		flds	s1, .L46+16
 707 0048 46EEE07A 		fnmacs	s15, s13, s1
 708 004c 91ED066A 		flds	s12, [r1, #24]
 709 0050 9FED120A 		flds	s0, .L46+20
 710 0054 46EE007A 		fmacs	s15, s12, s0
 711 0058 91ED073A 		flds	s6, [r1, #28]
 712 005c DFED103A 		flds	s7, .L46+24
 713 0060 43EE637A 		fnmacs	s15, s6, s7
 714              	.LVL46:
  63:../Libraries/AQ_Math/FourtOrderFilter.h **** 
  64:../Libraries/AQ_Math/FourtOrderFilter.h ****   filterParameters->inputTm4 = filterParameters->inputTm3;
  65:../Libraries/AQ_Math/FourtOrderFilter.h ****   filterParameters->inputTm3 = filterParameters->inputTm2;
  66:../Libraries/AQ_Math/FourtOrderFilter.h ****   filterParameters->inputTm2 = filterParameters->inputTm1;
  67:../Libraries/AQ_Math/FourtOrderFilter.h ****   filterParameters->inputTm1 = currentInput;
 715              		.loc 8 67 0
 716 0064 0860     		str	r0, [r1, #0]	@ float
  64:../Libraries/AQ_Math/FourtOrderFilter.h ****   filterParameters->inputTm4 = filterParameters->inputTm3;
 717              		.loc 8 64 0
 718 0066 81ED034A 		fsts	s8, [r1, #12]
  65:../Libraries/AQ_Math/FourtOrderFilter.h ****   filterParameters->inputTm3 = filterParameters->inputTm2;
 719              		.loc 8 65 0
 720 006a C1ED024A 		fsts	s9, [r1, #8]
  66:../Libraries/AQ_Math/FourtOrderFilter.h ****   filterParameters->inputTm2 = filterParameters->inputTm1;
 721              		.loc 8 66 0
 722 006e 81ED015A 		fsts	s10, [r1, #4]
  68:../Libraries/AQ_Math/FourtOrderFilter.h ****   
  69:../Libraries/AQ_Math/FourtOrderFilter.h ****   filterParameters->outputTm4 = filterParameters->outputTm3;
 723              		.loc 8 69 0
 724 0072 81ED076A 		fsts	s12, [r1, #28]
  70:../Libraries/AQ_Math/FourtOrderFilter.h ****   filterParameters->outputTm3 = filterParameters->outputTm2;
 725              		.loc 8 70 0
 726 0076 C1ED066A 		fsts	s13, [r1, #24]
  71:../Libraries/AQ_Math/FourtOrderFilter.h ****   filterParameters->outputTm2 = filterParameters->outputTm1;
 727              		.loc 8 71 0
 728 007a 81ED057A 		fsts	s14, [r1, #20]
  72:../Libraries/AQ_Math/FourtOrderFilter.h ****   filterParameters->outputTm1 = output;
 729              		.loc 8 72 0
 730 007e C1ED047A 		fsts	s15, [r1, #16]
 731              	.LBE32:
  73:../Libraries/AQ_Math/FourtOrderFilter.h ****     
  74:../Libraries/AQ_Math/FourtOrderFilter.h ****   return output;
  75:../Libraries/AQ_Math/FourtOrderFilter.h **** }
 732              		.loc 8 75 0
 733 0082 17EE900A 		fmrs	r0, s15
 734              	.LVL47:
 735 0086 7047     		bx	lr
 736              	.L47:
 737              		.align	2
 738              	.L46:
 739 0088 D58111BB 		.word	-1156480555
 740 008c 7932F83A 		.word	989344377
 741 0090 1A1B5E3B 		.word	996023066
 742 0094 382F5740 		.word	1079455544
 743 0098 200B8940 		.word	1082723104
 744 009c 0A771C40 		.word	1075607306
 745 00a0 4CF3063F 		.word	1057420108
 746              		.cfi_endproc
 747              	.LFE128:
 749              		.section	.text._Z16setupFourthOrderv,"ax",%progbits
 750              		.align	1
 751              		.global	_Z16setupFourthOrderv
 752              		.thumb
 753              		.thumb_func
 755              	_Z16setupFourthOrderv:
 756              	.LFB129:
  76:../Libraries/AQ_Math/FourtOrderFilter.h **** 
  77:../Libraries/AQ_Math/FourtOrderFilter.h **** void setupFourthOrder(void)
  78:../Libraries/AQ_Math/FourtOrderFilter.h **** {
 757              		.loc 8 78 0
 758              		.cfi_startproc
 759              		@ args = 0, pretend = 0, frame = 0
 760              		@ frame_needed = 0, uses_anonymous_args = 0
 761              		@ link register save eliminated.
  79:../Libraries/AQ_Math/FourtOrderFilter.h ****   fourthOrder[XAXIS].inputTm1 = 0.0;
 762              		.loc 8 79 0
 763 0000 0D4B     		ldr	r3, .L49
  80:../Libraries/AQ_Math/FourtOrderFilter.h ****   fourthOrder[XAXIS].inputTm2 = 0.0;
  81:../Libraries/AQ_Math/FourtOrderFilter.h ****   fourthOrder[XAXIS].inputTm3 = 0.0;
  82:../Libraries/AQ_Math/FourtOrderFilter.h ****   fourthOrder[XAXIS].inputTm4 = 0.0;
  83:../Libraries/AQ_Math/FourtOrderFilter.h ****   
  84:../Libraries/AQ_Math/FourtOrderFilter.h ****   fourthOrder[XAXIS].outputTm1 = 0.0;
  85:../Libraries/AQ_Math/FourtOrderFilter.h ****   fourthOrder[XAXIS].outputTm2 = 0.0;
  86:../Libraries/AQ_Math/FourtOrderFilter.h ****   fourthOrder[XAXIS].outputTm3 = 0.0;
  87:../Libraries/AQ_Math/FourtOrderFilter.h ****   fourthOrder[XAXIS].outputTm4 = 0.0;
  88:../Libraries/AQ_Math/FourtOrderFilter.h ****   
  89:../Libraries/AQ_Math/FourtOrderFilter.h ****   //////////
  90:../Libraries/AQ_Math/FourtOrderFilter.h ****   fourthOrder[YAXIS].inputTm1 = 0.0;
  91:../Libraries/AQ_Math/FourtOrderFilter.h ****   fourthOrder[YAXIS].inputTm2 = 0.0;
  92:../Libraries/AQ_Math/FourtOrderFilter.h ****   fourthOrder[YAXIS].inputTm3 = 0.0;
  93:../Libraries/AQ_Math/FourtOrderFilter.h ****   fourthOrder[YAXIS].inputTm4 = 0.0;
  94:../Libraries/AQ_Math/FourtOrderFilter.h ****   
  95:../Libraries/AQ_Math/FourtOrderFilter.h ****   fourthOrder[YAXIS].outputTm1 = 0.0;
  96:../Libraries/AQ_Math/FourtOrderFilter.h ****   fourthOrder[YAXIS].outputTm2 = 0.0;
  97:../Libraries/AQ_Math/FourtOrderFilter.h ****   fourthOrder[YAXIS].outputTm3 = 0.0;
  98:../Libraries/AQ_Math/FourtOrderFilter.h ****   fourthOrder[YAXIS].outputTm4 = 0.0;
  99:../Libraries/AQ_Math/FourtOrderFilter.h ****   
 100:../Libraries/AQ_Math/FourtOrderFilter.h ****   //////////
 101:../Libraries/AQ_Math/FourtOrderFilter.h ****   fourthOrder[ZAXIS].inputTm1 = -9.8065;
 764              		.loc 8 101 0
 765 0002 0E4A     		ldr	r2, .L49+4
  79:../Libraries/AQ_Math/FourtOrderFilter.h ****   fourthOrder[XAXIS].inputTm1 = 0.0;
 766              		.loc 8 79 0
 767 0004 0020     		movs	r0, #0
 768 0006 1860     		str	r0, [r3, #0]	@ float
  80:../Libraries/AQ_Math/FourtOrderFilter.h ****   fourthOrder[XAXIS].inputTm2 = 0.0;
 769              		.loc 8 80 0
 770 0008 5860     		str	r0, [r3, #4]	@ float
  81:../Libraries/AQ_Math/FourtOrderFilter.h ****   fourthOrder[XAXIS].inputTm3 = 0.0;
 771              		.loc 8 81 0
 772 000a 9860     		str	r0, [r3, #8]	@ float
  82:../Libraries/AQ_Math/FourtOrderFilter.h ****   fourthOrder[XAXIS].inputTm4 = 0.0;
 773              		.loc 8 82 0
 774 000c D860     		str	r0, [r3, #12]	@ float
  84:../Libraries/AQ_Math/FourtOrderFilter.h ****   fourthOrder[XAXIS].outputTm1 = 0.0;
 775              		.loc 8 84 0
 776 000e 1861     		str	r0, [r3, #16]	@ float
  85:../Libraries/AQ_Math/FourtOrderFilter.h ****   fourthOrder[XAXIS].outputTm2 = 0.0;
 777              		.loc 8 85 0
 778 0010 5861     		str	r0, [r3, #20]	@ float
  86:../Libraries/AQ_Math/FourtOrderFilter.h ****   fourthOrder[XAXIS].outputTm3 = 0.0;
 779              		.loc 8 86 0
 780 0012 9861     		str	r0, [r3, #24]	@ float
  87:../Libraries/AQ_Math/FourtOrderFilter.h ****   fourthOrder[XAXIS].outputTm4 = 0.0;
 781              		.loc 8 87 0
 782 0014 D861     		str	r0, [r3, #28]	@ float
  90:../Libraries/AQ_Math/FourtOrderFilter.h ****   fourthOrder[YAXIS].inputTm1 = 0.0;
 783              		.loc 8 90 0
 784 0016 1862     		str	r0, [r3, #32]	@ float
  91:../Libraries/AQ_Math/FourtOrderFilter.h ****   fourthOrder[YAXIS].inputTm2 = 0.0;
 785              		.loc 8 91 0
 786 0018 5862     		str	r0, [r3, #36]	@ float
  92:../Libraries/AQ_Math/FourtOrderFilter.h ****   fourthOrder[YAXIS].inputTm3 = 0.0;
 787              		.loc 8 92 0
 788 001a 9862     		str	r0, [r3, #40]	@ float
  93:../Libraries/AQ_Math/FourtOrderFilter.h ****   fourthOrder[YAXIS].inputTm4 = 0.0;
 789              		.loc 8 93 0
 790 001c D862     		str	r0, [r3, #44]	@ float
  95:../Libraries/AQ_Math/FourtOrderFilter.h ****   fourthOrder[YAXIS].outputTm1 = 0.0;
 791              		.loc 8 95 0
 792 001e 1863     		str	r0, [r3, #48]	@ float
  96:../Libraries/AQ_Math/FourtOrderFilter.h ****   fourthOrder[YAXIS].outputTm2 = 0.0;
 793              		.loc 8 96 0
 794 0020 5863     		str	r0, [r3, #52]	@ float
  97:../Libraries/AQ_Math/FourtOrderFilter.h ****   fourthOrder[YAXIS].outputTm3 = 0.0;
 795              		.loc 8 97 0
 796 0022 9863     		str	r0, [r3, #56]	@ float
  98:../Libraries/AQ_Math/FourtOrderFilter.h ****   fourthOrder[YAXIS].outputTm4 = 0.0;
 797              		.loc 8 98 0
 798 0024 D863     		str	r0, [r3, #60]	@ float
 799              		.loc 8 101 0
 800 0026 1A64     		str	r2, [r3, #64]	@ float
 102:../Libraries/AQ_Math/FourtOrderFilter.h ****   fourthOrder[ZAXIS].inputTm2 = -9.8065;
 801              		.loc 8 102 0
 802 0028 5A64     		str	r2, [r3, #68]	@ float
 103:../Libraries/AQ_Math/FourtOrderFilter.h ****   fourthOrder[ZAXIS].inputTm3 = -9.8065;
 803              		.loc 8 103 0
 804 002a 9A64     		str	r2, [r3, #72]	@ float
 104:../Libraries/AQ_Math/FourtOrderFilter.h ****   fourthOrder[ZAXIS].inputTm4 = -9.8065;
 805              		.loc 8 104 0
 806 002c DA64     		str	r2, [r3, #76]	@ float
 105:../Libraries/AQ_Math/FourtOrderFilter.h ****   
 106:../Libraries/AQ_Math/FourtOrderFilter.h ****   fourthOrder[ZAXIS].outputTm1 = -9.8065;
 807              		.loc 8 106 0
 808 002e 1A65     		str	r2, [r3, #80]	@ float
 107:../Libraries/AQ_Math/FourtOrderFilter.h ****   fourthOrder[ZAXIS].outputTm2 = -9.8065;
 809              		.loc 8 107 0
 810 0030 5A65     		str	r2, [r3, #84]	@ float
 108:../Libraries/AQ_Math/FourtOrderFilter.h ****   fourthOrder[ZAXIS].outputTm3 = -9.8065;
 811              		.loc 8 108 0
 812 0032 9A65     		str	r2, [r3, #88]	@ float
 109:../Libraries/AQ_Math/FourtOrderFilter.h ****   fourthOrder[ZAXIS].outputTm4 = -9.8065;
 813              		.loc 8 109 0
 814 0034 DA65     		str	r2, [r3, #92]	@ float
 110:../Libraries/AQ_Math/FourtOrderFilter.h **** }
 815              		.loc 8 110 0
 816 0036 7047     		bx	lr
 817              	.L50:
 818              		.align	2
 819              	.L49:
 820 0038 00000000 		.word	.LANCHOR10
 821 003c 6DE71CC1 		.word	-1055070355
 822              		.cfi_endproc
 823              	.LFE129:
 825              		.section	.text._ZN14HardwareSPIExt5SetCSEi,"axG",%progbits,_ZN14HardwareSPIExt5SetCSEi,comdat
 826              		.align	1
 827              		.weak	_ZN14HardwareSPIExt5SetCSEi
 828              		.thumb
 829              		.thumb_func
 831              	_ZN14HardwareSPIExt5SetCSEi:
 832              	.LFB133:
 833              		.file 9 "../Libraries/AQ_SPI/HardwareSPIExt.h"
   1:../Libraries/AQ_SPI/HardwareSPIExt.h **** #ifndef _AEROQUAD_SPI_HARDWARESPIEXT_H_
   2:../Libraries/AQ_SPI/HardwareSPIExt.h **** #define _AEROQUAD_SPI_HARDWARESPIEXT_H_
   3:../Libraries/AQ_SPI/HardwareSPIExt.h **** 
   4:../Libraries/AQ_SPI/HardwareSPIExt.h **** #if defined(AeroQuadSTM32)
   5:../Libraries/AQ_SPI/HardwareSPIExt.h **** 
   6:../Libraries/AQ_SPI/HardwareSPIExt.h **** // helper class to extend the maple HardwareSPI class
   7:../Libraries/AQ_SPI/HardwareSPIExt.h **** // used by the MPU6000 library
   8:../Libraries/AQ_SPI/HardwareSPIExt.h **** 
   9:../Libraries/AQ_SPI/HardwareSPIExt.h **** #include <HardwareSPI.h>
  10:../Libraries/AQ_SPI/HardwareSPIExt.h **** 
  11:../Libraries/AQ_SPI/HardwareSPIExt.h **** #define SPI_READ_FLAG  0x80
  12:../Libraries/AQ_SPI/HardwareSPIExt.h **** #define SPI_MULTI_FLAG 0x40
  13:../Libraries/AQ_SPI/HardwareSPIExt.h **** #define SetPin digitalWrite
  14:../Libraries/AQ_SPI/HardwareSPIExt.h **** 
  15:../Libraries/AQ_SPI/HardwareSPIExt.h **** class HardwareSPIExt : public HardwareSPI {
  16:../Libraries/AQ_SPI/HardwareSPIExt.h **** public:
  17:../Libraries/AQ_SPI/HardwareSPIExt.h **** 	HardwareSPIExt(uint32 spiPortNumber) : HardwareSPI(spiPortNumber) {
  18:../Libraries/AQ_SPI/HardwareSPIExt.h **** 		SetCS(nssPin());
  19:../Libraries/AQ_SPI/HardwareSPIExt.h **** 		fSpiMultiFlag = 0;
  20:../Libraries/AQ_SPI/HardwareSPIExt.h **** 	}
  21:../Libraries/AQ_SPI/HardwareSPIExt.h **** 
  22:../Libraries/AQ_SPI/HardwareSPIExt.h **** 	void SetCS(int aCS)
 834              		.loc 9 22 0
 835              		.cfi_startproc
 836              		@ args = 0, pretend = 0, frame = 0
 837              		@ frame_needed = 0, uses_anonymous_args = 0
 838              		@ link register save eliminated.
 839              	.LVL48:
  23:../Libraries/AQ_SPI/HardwareSPIExt.h **** 	{
  24:../Libraries/AQ_SPI/HardwareSPIExt.h **** 		fCS = aCS;
 840              		.loc 9 24 0
 841 0000 4160     		str	r1, [r0, #4]
  25:../Libraries/AQ_SPI/HardwareSPIExt.h **** 	}
 842              		.loc 9 25 0
 843 0002 7047     		bx	lr
 844              		.cfi_endproc
 845              	.LFE133:
 847              		.section	.text._ZN14HardwareSPIExtC2Ej,"axG",%progbits,_ZN14HardwareSPIExtC5Ej,comdat
 848              		.align	1
 849              		.weak	_ZN14HardwareSPIExtC2Ej
 850              		.thumb
 851              		.thumb_func
 853              	_ZN14HardwareSPIExtC2Ej:
 854              	.LFB131:
  17:../Libraries/AQ_SPI/HardwareSPIExt.h **** 	HardwareSPIExt(uint32 spiPortNumber) : HardwareSPI(spiPortNumber) {
 855              		.loc 9 17 0
 856              		.cfi_startproc
 857              		@ args = 0, pretend = 0, frame = 0
 858              		@ frame_needed = 0, uses_anonymous_args = 0
 859              	.LVL49:
 860 0000 10B5     		push	{r4, lr}
 861              	.LCFI1:
 862              		.cfi_def_cfa_offset 8
 863              		.cfi_offset 14, -4
 864              		.cfi_offset 4, -8
  17:../Libraries/AQ_SPI/HardwareSPIExt.h **** 	HardwareSPIExt(uint32 spiPortNumber) : HardwareSPI(spiPortNumber) {
 865              		.loc 9 17 0
 866 0002 0446     		mov	r4, r0
 867              	.LBB33:
 868 0004 FFF7FEFF 		bl	_ZN11HardwareSPIC2Ej
 869              	.LVL50:
  18:../Libraries/AQ_SPI/HardwareSPIExt.h **** 		SetCS(nssPin());
 870              		.loc 9 18 0
 871 0008 2046     		mov	r0, r4
 872 000a FFF7FEFF 		bl	_ZN11HardwareSPI6nssPinEv
 873 000e 0146     		mov	r1, r0
 874 0010 2046     		mov	r0, r4
 875 0012 FFF7FEFF 		bl	_ZN14HardwareSPIExt5SetCSEi
  19:../Libraries/AQ_SPI/HardwareSPIExt.h **** 		fSpiMultiFlag = 0;
 876              		.loc 9 19 0
 877 0016 0023     		movs	r3, #0
 878 0018 2372     		strb	r3, [r4, #8]
 879              	.LBE33:
  20:../Libraries/AQ_SPI/HardwareSPIExt.h **** 	}
 880              		.loc 9 20 0
 881 001a 2046     		mov	r0, r4
 882 001c 10BD     		pop	{r4, pc}
 883              		.cfi_endproc
 884              	.LFE131:
 886              		.section	.text._ZN14HardwareSPIExt5beginE12SPIFrequencyjj,"axG",%progbits,_ZN14HardwareSPIExt5begi
 887              		.align	1
 888              		.weak	_ZN14HardwareSPIExt5beginE12SPIFrequencyjj
 889              		.thumb
 890              		.thumb_func
 892              	_ZN14HardwareSPIExt5beginE12SPIFrequencyjj:
 893              	.LFB135:
  26:../Libraries/AQ_SPI/HardwareSPIExt.h **** 
  27:../Libraries/AQ_SPI/HardwareSPIExt.h **** 	void SetMultiFlag() {
  28:../Libraries/AQ_SPI/HardwareSPIExt.h **** 		fSpiMultiFlag = SPI_MULTI_FLAG;
  29:../Libraries/AQ_SPI/HardwareSPIExt.h **** 	}
  30:../Libraries/AQ_SPI/HardwareSPIExt.h **** 
  31:../Libraries/AQ_SPI/HardwareSPIExt.h **** 	void begin(SPIFrequency frequency, uint32 bitOrder, uint32 mode)
 894              		.loc 9 31 0
 895              		.cfi_startproc
 896              		@ args = 0, pretend = 0, frame = 0
 897              		@ frame_needed = 0, uses_anonymous_args = 0
 898              	.LVL51:
 899 0000 2DE9F041 		push	{r4, r5, r6, r7, r8, lr}
 900              	.LCFI2:
 901              		.cfi_def_cfa_offset 24
 902              		.cfi_offset 14, -4
 903              		.cfi_offset 8, -8
 904              		.cfi_offset 7, -12
 905              		.cfi_offset 6, -16
 906              		.cfi_offset 5, -20
 907              		.cfi_offset 4, -24
 908              		.loc 9 31 0
 909 0004 0446     		mov	r4, r0
 910 0006 0D46     		mov	r5, r1
  32:../Libraries/AQ_SPI/HardwareSPIExt.h **** 	{
  33:../Libraries/AQ_SPI/HardwareSPIExt.h **** 		SetPin(fCS, 1);
 911              		.loc 9 33 0
 912 0008 0079     		ldrb	r0, [r0, #4]	@ zero_extendqisi2
 913              	.LVL52:
 914 000a 0121     		movs	r1, #1
 915              	.LVL53:
  31:../Libraries/AQ_SPI/HardwareSPIExt.h **** 	void begin(SPIFrequency frequency, uint32 bitOrder, uint32 mode)
 916              		.loc 9 31 0
 917 000c 1746     		mov	r7, r2
 918 000e 1E46     		mov	r6, r3
 919              		.loc 9 33 0
 920 0010 FFF7FEFF 		bl	_Z12digitalWritehh
 921              	.LVL54:
  34:../Libraries/AQ_SPI/HardwareSPIExt.h **** 		pinMode(fCS, OUTPUT);
 922              		.loc 9 34 0
 923 0014 2079     		ldrb	r0, [r4, #4]	@ zero_extendqisi2
 924 0016 0021     		movs	r1, #0
 925 0018 FFF7FEFF 		bl	_Z7pinModeh13WiringPinMode
  35:../Libraries/AQ_SPI/HardwareSPIExt.h **** 
  36:../Libraries/AQ_SPI/HardwareSPIExt.h **** 		HardwareSPI::begin(frequency, bitOrder, mode);
 926              		.loc 9 36 0
 927 001c 2046     		mov	r0, r4
 928 001e 2946     		mov	r1, r5
 929 0020 3A46     		mov	r2, r7
 930 0022 3346     		mov	r3, r6
  37:../Libraries/AQ_SPI/HardwareSPIExt.h **** 	}
 931              		.loc 9 37 0
 932 0024 BDE8F041 		pop	{r4, r5, r6, r7, r8, lr}
  36:../Libraries/AQ_SPI/HardwareSPIExt.h **** 		HardwareSPI::begin(frequency, bitOrder, mode);
 933              		.loc 9 36 0
 934 0028 FFF7FEBF 		b	_ZN11HardwareSPI5beginE12SPIFrequencyjj
 935              		.cfi_endproc
 936              	.LFE135:
 938              		.section	.text._ZN14HardwareSPIExt4ReadEiPhi,"axG",%progbits,_ZN14HardwareSPIExt4ReadEiPhi,comdat
 939              		.align	1
 940              		.weak	_ZN14HardwareSPIExt4ReadEiPhi
 941              		.thumb
 942              		.thumb_func
 944              	_ZN14HardwareSPIExt4ReadEiPhi:
 945              	.LFB136:
  38:../Libraries/AQ_SPI/HardwareSPIExt.h **** 
  39:../Libraries/AQ_SPI/HardwareSPIExt.h **** 	void Read(int addr, unsigned char *data, int dataLen)
 946              		.loc 9 39 0
 947              		.cfi_startproc
 948              		@ args = 0, pretend = 0, frame = 0
 949              		@ frame_needed = 0, uses_anonymous_args = 0
 950              	.LVL55:
 951 0000 F8B5     		push	{r3, r4, r5, r6, r7, lr}
 952              	.LCFI3:
 953              		.cfi_def_cfa_offset 24
 954              		.cfi_offset 14, -4
 955              		.cfi_offset 7, -8
 956              		.cfi_offset 6, -12
 957              		.cfi_offset 5, -16
 958              		.cfi_offset 4, -20
 959              		.cfi_offset 3, -24
 960              		.loc 9 39 0
 961 0002 0446     		mov	r4, r0
 962 0004 0D46     		mov	r5, r1
  40:../Libraries/AQ_SPI/HardwareSPIExt.h **** 	{
  41:../Libraries/AQ_SPI/HardwareSPIExt.h **** 		SetPin(fCS, 0);
 963              		.loc 9 41 0
 964 0006 0079     		ldrb	r0, [r0, #4]	@ zero_extendqisi2
 965              	.LVL56:
 966 0008 0021     		movs	r1, #0
 967              	.LVL57:
  39:../Libraries/AQ_SPI/HardwareSPIExt.h **** 	void Read(int addr, unsigned char *data, int dataLen)
 968              		.loc 9 39 0
 969 000a 1F46     		mov	r7, r3
 970 000c 1646     		mov	r6, r2
 971              		.loc 9 41 0
 972 000e FFF7FEFF 		bl	_Z12digitalWritehh
 973              	.LVL58:
  42:../Libraries/AQ_SPI/HardwareSPIExt.h **** 		transfer(addr | SPI_READ_FLAG | fSpiMultiFlag);
 974              		.loc 9 42 0
 975 0012 207A     		ldrb	r0, [r4, #8]	@ zero_extendqisi2
 976 0014 60F07F03 		orn	r3, r0, #127
 977 0018 1D43     		orrs	r5, r5, r3
 978              	.LVL59:
 979 001a E9B2     		uxtb	r1, r5
 980 001c 2046     		mov	r0, r4
 981 001e FFF7FEFF 		bl	_ZN11HardwareSPI8transferEh
 982 0022 3D46     		mov	r5, r7
  43:../Libraries/AQ_SPI/HardwareSPIExt.h **** 		while(dataLen-- > 0) {
 983              		.loc 9 43 0
 984 0024 06E0     		b	.L56
 985              	.LVL60:
 986              	.L57:
  44:../Libraries/AQ_SPI/HardwareSPIExt.h **** 			*data++ = transfer(0);
 987              		.loc 9 44 0
 988 0026 2046     		mov	r0, r4
 989 0028 0021     		movs	r1, #0
 990 002a FFF7FEFF 		bl	_ZN11HardwareSPI8transferEh
 991 002e 06F8010B 		strb	r0, [r6], #1
 992              	.LVL61:
 993 0032 013D     		subs	r5, r5, #1
 994              	.L56:
  43:../Libraries/AQ_SPI/HardwareSPIExt.h **** 		while(dataLen-- > 0) {
 995              		.loc 9 43 0 discriminator 1
 996 0034 002D     		cmp	r5, #0
 997 0036 F6DC     		bgt	.L57
  45:../Libraries/AQ_SPI/HardwareSPIExt.h **** 		}
  46:../Libraries/AQ_SPI/HardwareSPIExt.h **** 		SetPin(fCS, 1);
 998              		.loc 9 46 0
 999 0038 2079     		ldrb	r0, [r4, #4]	@ zero_extendqisi2
 1000 003a 0121     		movs	r1, #1
  47:../Libraries/AQ_SPI/HardwareSPIExt.h **** 	}
 1001              		.loc 9 47 0
 1002 003c BDE8F840 		pop	{r3, r4, r5, r6, r7, lr}
  46:../Libraries/AQ_SPI/HardwareSPIExt.h **** 		SetPin(fCS, 1);
 1003              		.loc 9 46 0
 1004 0040 FFF7FEBF 		b	_Z12digitalWritehh
 1005              		.cfi_endproc
 1006              	.LFE136:
 1008              		.section	.text._ZN14HardwareSPIExt4ReadEi,"axG",%progbits,_ZN14HardwareSPIExt4ReadEi,comdat
 1009              		.align	1
 1010              		.weak	_ZN14HardwareSPIExt4ReadEi
 1011              		.thumb
 1012              		.thumb_func
 1014              	_ZN14HardwareSPIExt4ReadEi:
 1015              	.LFB137:
  48:../Libraries/AQ_SPI/HardwareSPIExt.h **** 
  49:../Libraries/AQ_SPI/HardwareSPIExt.h **** 	unsigned char Read(int addr)
 1016              		.loc 9 49 0
 1017              		.cfi_startproc
 1018              		@ args = 0, pretend = 0, frame = 8
 1019              		@ frame_needed = 0, uses_anonymous_args = 0
 1020              	.LVL62:
 1021 0000 07B5     		push	{r0, r1, r2, lr}
 1022              	.LCFI4:
 1023              		.cfi_def_cfa_offset 16
 1024              		.cfi_offset 14, -4
 1025              		.cfi_offset 2, -8
 1026              		.cfi_offset 1, -12
 1027              		.cfi_offset 0, -16
 1028              	.LBB34:
  50:../Libraries/AQ_SPI/HardwareSPIExt.h **** 	{
  51:../Libraries/AQ_SPI/HardwareSPIExt.h **** 		unsigned char data;
  52:../Libraries/AQ_SPI/HardwareSPIExt.h **** 		Read(addr, &data, 1);
 1029              		.loc 9 52 0
 1030 0002 0123     		movs	r3, #1
 1031 0004 0DF10702 		add	r2, sp, #7
 1032 0008 FFF7FEFF 		bl	_ZN14HardwareSPIExt4ReadEiPhi
 1033              	.LVL63:
 1034              	.LBE34:
  53:../Libraries/AQ_SPI/HardwareSPIExt.h **** 
  54:../Libraries/AQ_SPI/HardwareSPIExt.h **** 		return data;
  55:../Libraries/AQ_SPI/HardwareSPIExt.h **** 	}
 1035              		.loc 9 55 0
 1036 000c 9DF80700 		ldrb	r0, [sp, #7]	@ zero_extendqisi2
 1037 0010 0EBD     		pop	{r1, r2, r3, pc}
 1038              		.cfi_endproc
 1039              	.LFE137:
 1041              		.section	.text._ZN14HardwareSPIExt5WriteEiPhi,"axG",%progbits,_ZN14HardwareSPIExt5WriteEiPhi,comda
 1042              		.align	1
 1043              		.weak	_ZN14HardwareSPIExt5WriteEiPhi
 1044              		.thumb
 1045              		.thumb_func
 1047              	_ZN14HardwareSPIExt5WriteEiPhi:
 1048              	.LFB138:
  56:../Libraries/AQ_SPI/HardwareSPIExt.h **** 
  57:../Libraries/AQ_SPI/HardwareSPIExt.h **** 	void Write(int addr, unsigned char *data, int dataLen)
 1049              		.loc 9 57 0
 1050              		.cfi_startproc
 1051              		@ args = 0, pretend = 0, frame = 0
 1052              		@ frame_needed = 0, uses_anonymous_args = 0
 1053              	.LVL64:
 1054 0000 F8B5     		push	{r3, r4, r5, r6, r7, lr}
 1055              	.LCFI5:
 1056              		.cfi_def_cfa_offset 24
 1057              		.cfi_offset 14, -4
 1058              		.cfi_offset 7, -8
 1059              		.cfi_offset 6, -12
 1060              		.cfi_offset 5, -16
 1061              		.cfi_offset 4, -20
 1062              		.cfi_offset 3, -24
 1063              		.loc 9 57 0
 1064 0002 0446     		mov	r4, r0
 1065 0004 0D46     		mov	r5, r1
  58:../Libraries/AQ_SPI/HardwareSPIExt.h **** 	{
  59:../Libraries/AQ_SPI/HardwareSPIExt.h **** 		SetPin(fCS, 0);
 1066              		.loc 9 59 0
 1067 0006 0079     		ldrb	r0, [r0, #4]	@ zero_extendqisi2
 1068              	.LVL65:
 1069 0008 0021     		movs	r1, #0
 1070              	.LVL66:
  57:../Libraries/AQ_SPI/HardwareSPIExt.h **** 	void Write(int addr, unsigned char *data, int dataLen)
 1071              		.loc 9 57 0
 1072 000a 1F46     		mov	r7, r3
 1073 000c 1646     		mov	r6, r2
 1074              		.loc 9 59 0
 1075 000e FFF7FEFF 		bl	_Z12digitalWritehh
 1076              	.LVL67:
  60:../Libraries/AQ_SPI/HardwareSPIExt.h **** 		transfer(addr | fSpiMultiFlag);
 1077              		.loc 9 60 0
 1078 0012 237A     		ldrb	r3, [r4, #8]	@ zero_extendqisi2
 1079 0014 1D43     		orrs	r5, r5, r3
 1080              	.LVL68:
 1081 0016 E9B2     		uxtb	r1, r5
 1082 0018 2046     		mov	r0, r4
 1083 001a FFF7FEFF 		bl	_ZN11HardwareSPI8transferEh
 1084 001e 3D46     		mov	r5, r7
  61:../Libraries/AQ_SPI/HardwareSPIExt.h **** 		while(dataLen-- > 0) {
 1085              		.loc 9 61 0
 1086 0020 05E0     		b	.L60
 1087              	.LVL69:
 1088              	.L61:
  62:../Libraries/AQ_SPI/HardwareSPIExt.h **** 			transfer(*data++);
 1089              		.loc 9 62 0
 1090 0022 2046     		mov	r0, r4
 1091 0024 16F8011B 		ldrb	r1, [r6], #1	@ zero_extendqisi2
 1092              	.LVL70:
 1093 0028 FFF7FEFF 		bl	_ZN11HardwareSPI8transferEh
 1094 002c 013D     		subs	r5, r5, #1
 1095              	.LVL71:
 1096              	.L60:
  61:../Libraries/AQ_SPI/HardwareSPIExt.h **** 		while(dataLen-- > 0) {
 1097              		.loc 9 61 0 discriminator 1
 1098 002e 002D     		cmp	r5, #0
 1099 0030 F7DC     		bgt	.L61
  63:../Libraries/AQ_SPI/HardwareSPIExt.h **** 		}
  64:../Libraries/AQ_SPI/HardwareSPIExt.h **** 		SetPin(fCS, 1);
 1100              		.loc 9 64 0
 1101 0032 2079     		ldrb	r0, [r4, #4]	@ zero_extendqisi2
 1102 0034 0121     		movs	r1, #1
  65:../Libraries/AQ_SPI/HardwareSPIExt.h **** 	}
 1103              		.loc 9 65 0
 1104 0036 BDE8F840 		pop	{r3, r4, r5, r6, r7, lr}
  64:../Libraries/AQ_SPI/HardwareSPIExt.h **** 		SetPin(fCS, 1);
 1105              		.loc 9 64 0
 1106 003a FFF7FEBF 		b	_Z12digitalWritehh
 1107              		.cfi_endproc
 1108              	.LFE138:
 1110              		.section	.text._ZN14HardwareSPIExt5WriteEih,"axG",%progbits,_ZN14HardwareSPIExt5WriteEih,comdat
 1111              		.align	1
 1112              		.weak	_ZN14HardwareSPIExt5WriteEih
 1113              		.thumb
 1114              		.thumb_func
 1116              	_ZN14HardwareSPIExt5WriteEih:
 1117              	.LFB139:
  66:../Libraries/AQ_SPI/HardwareSPIExt.h **** 
  67:../Libraries/AQ_SPI/HardwareSPIExt.h **** 	void Write(int addr, unsigned char data)
 1118              		.loc 9 67 0
 1119              		.cfi_startproc
 1120              		@ args = 0, pretend = 0, frame = 8
 1121              		@ frame_needed = 0, uses_anonymous_args = 0
 1122              	.LVL72:
 1123 0000 07B5     		push	{r0, r1, r2, lr}
 1124              	.LCFI6:
 1125              		.cfi_def_cfa_offset 16
 1126              		.cfi_offset 14, -4
 1127              		.cfi_offset 2, -8
 1128              		.cfi_offset 1, -12
 1129              		.cfi_offset 0, -16
 1130              	.LVL73:
 1131              		.loc 9 67 0
 1132 0002 02AB     		add	r3, sp, #8
 1133              	.LVL74:
 1134 0004 03F8012D 		strb	r2, [r3, #-1]!
  68:../Libraries/AQ_SPI/HardwareSPIExt.h **** 	{
  69:../Libraries/AQ_SPI/HardwareSPIExt.h **** 		Write(addr, &data, 1);
 1135              		.loc 9 69 0
 1136 0008 1A46     		mov	r2, r3
 1137              	.LVL75:
 1138 000a 0123     		movs	r3, #1
 1139 000c FFF7FEFF 		bl	_ZN14HardwareSPIExt5WriteEiPhi
 1140              	.LVL76:
  70:../Libraries/AQ_SPI/HardwareSPIExt.h **** 	}
 1141              		.loc 9 70 0
 1142 0010 0EBD     		pop	{r1, r2, r3, pc}
 1143              		.cfi_endproc
 1144              	.LFE139:
 1146              		.section	.text._Z19MPU6000_SpiLowSpeedv,"ax",%progbits
 1147              		.align	1
 1148              		.global	_Z19MPU6000_SpiLowSpeedv
 1149              		.thumb
 1150              		.thumb_func
 1152              	_Z19MPU6000_SpiLowSpeedv:
 1153              	.LFB140:
 1154              		.file 10 "../Libraries/AQ_Platform_MPU6000/Platform_MPU6000.h"
   1:../Libraries/AQ_Platform_MPU6000/Platform_MPU6000.h **** /*
   2:../Libraries/AQ_Platform_MPU6000/Platform_MPU6000.h ****   AeroQuad v3.0 - May 2011
   3:../Libraries/AQ_Platform_MPU6000/Platform_MPU6000.h ****   www.AeroQuad.com
   4:../Libraries/AQ_Platform_MPU6000/Platform_MPU6000.h ****   Copyright (c) 2011 Ted Carancho.  All rights reserved.
   5:../Libraries/AQ_Platform_MPU6000/Platform_MPU6000.h ****   An Open Source Arduino based multicopter.
   6:../Libraries/AQ_Platform_MPU6000/Platform_MPU6000.h **** 
   7:../Libraries/AQ_Platform_MPU6000/Platform_MPU6000.h ****   This program is free software: you can redistribute it and/or modify
   8:../Libraries/AQ_Platform_MPU6000/Platform_MPU6000.h ****   it under the terms of the GNU General Public License as published by
   9:../Libraries/AQ_Platform_MPU6000/Platform_MPU6000.h ****   the Free Software Foundation, either version 3 of the License, or
  10:../Libraries/AQ_Platform_MPU6000/Platform_MPU6000.h ****   (at your option) any later version.
  11:../Libraries/AQ_Platform_MPU6000/Platform_MPU6000.h **** 
  12:../Libraries/AQ_Platform_MPU6000/Platform_MPU6000.h ****   This program is distributed in the hope that it will be useful,
  13:../Libraries/AQ_Platform_MPU6000/Platform_MPU6000.h ****   but WITHOUT ANY WARRANTY; without even the implied warranty of
  14:../Libraries/AQ_Platform_MPU6000/Platform_MPU6000.h ****   MERCHANTABILITY or FITNESS FOR A PARTICULAR PURPOSE. See the
  15:../Libraries/AQ_Platform_MPU6000/Platform_MPU6000.h ****   GNU General Public License for more details.
  16:../Libraries/AQ_Platform_MPU6000/Platform_MPU6000.h **** 
  17:../Libraries/AQ_Platform_MPU6000/Platform_MPU6000.h ****   You should have received a copy of the GNU General Public License
  18:../Libraries/AQ_Platform_MPU6000/Platform_MPU6000.h ****   along with this program. If not, see <http://www.gnu.org/licenses/>.
  19:../Libraries/AQ_Platform_MPU6000/Platform_MPU6000.h **** */
  20:../Libraries/AQ_Platform_MPU6000/Platform_MPU6000.h **** 
  21:../Libraries/AQ_Platform_MPU6000/Platform_MPU6000.h **** // parts of the init sequence were taken from AP_InertialSensor_MPU6000.h
  22:../Libraries/AQ_Platform_MPU6000/Platform_MPU6000.h **** 
  23:../Libraries/AQ_Platform_MPU6000/Platform_MPU6000.h **** #ifndef _AEROQUAD_PLATFORM_MPU6000_H_
  24:../Libraries/AQ_Platform_MPU6000/Platform_MPU6000.h **** #define _AEROQUAD_PLATFORM_MPU6000_H_
  25:../Libraries/AQ_Platform_MPU6000/Platform_MPU6000.h **** 
  26:../Libraries/AQ_Platform_MPU6000/Platform_MPU6000.h **** // I2C support for MPU6000/6050 is not tested yet
  27:../Libraries/AQ_Platform_MPU6000/Platform_MPU6000.h **** //#define MPU6000_I2C
  28:../Libraries/AQ_Platform_MPU6000/Platform_MPU6000.h **** 
  29:../Libraries/AQ_Platform_MPU6000/Platform_MPU6000.h **** #include "Arduino.h"
  30:../Libraries/AQ_Platform_MPU6000/Platform_MPU6000.h **** #include <SensorsStatus.h>
  31:../Libraries/AQ_Platform_MPU6000/Platform_MPU6000.h **** 
  32:../Libraries/AQ_Platform_MPU6000/Platform_MPU6000.h **** //#define MPU6000_I2C	// insert this define before #include <Platform_MPU6000.h> when you use a I2C
  33:../Libraries/AQ_Platform_MPU6000/Platform_MPU6000.h **** 
  34:../Libraries/AQ_Platform_MPU6000/Platform_MPU6000.h **** // MPU 6000 registers
  35:../Libraries/AQ_Platform_MPU6000/Platform_MPU6000.h **** #define MPUREG_WHOAMI			0x75
  36:../Libraries/AQ_Platform_MPU6000/Platform_MPU6000.h **** #define MPUREG_SMPLRT_DIV		0x19
  37:../Libraries/AQ_Platform_MPU6000/Platform_MPU6000.h **** #define MPUREG_CONFIG			0x1A
  38:../Libraries/AQ_Platform_MPU6000/Platform_MPU6000.h **** #define MPUREG_GYRO_CONFIG		0x1B
  39:../Libraries/AQ_Platform_MPU6000/Platform_MPU6000.h **** #define MPUREG_ACCEL_CONFIG		0x1C
  40:../Libraries/AQ_Platform_MPU6000/Platform_MPU6000.h **** #define MPUREG_FIFO_EN			0x23
  41:../Libraries/AQ_Platform_MPU6000/Platform_MPU6000.h **** #define MPUREG_INT_PIN_CFG		0x37
  42:../Libraries/AQ_Platform_MPU6000/Platform_MPU6000.h **** #define MPUREG_INT_ENABLE		0x38
  43:../Libraries/AQ_Platform_MPU6000/Platform_MPU6000.h **** #define MPUREG_INT_STATUS		0x3A
  44:../Libraries/AQ_Platform_MPU6000/Platform_MPU6000.h **** #define MPUREG_ACCEL_XOUT_H		0x3B
  45:../Libraries/AQ_Platform_MPU6000/Platform_MPU6000.h **** #define MPUREG_ACCEL_XOUT_L		0x3C
  46:../Libraries/AQ_Platform_MPU6000/Platform_MPU6000.h **** #define MPUREG_ACCEL_YOUT_H		0x3D
  47:../Libraries/AQ_Platform_MPU6000/Platform_MPU6000.h **** #define MPUREG_ACCEL_YOUT_L		0x3E
  48:../Libraries/AQ_Platform_MPU6000/Platform_MPU6000.h **** #define MPUREG_ACCEL_ZOUT_H		0x3F
  49:../Libraries/AQ_Platform_MPU6000/Platform_MPU6000.h **** #define MPUREG_ACCEL_ZOUT_L		0x40
  50:../Libraries/AQ_Platform_MPU6000/Platform_MPU6000.h **** #define MPUREG_TEMP_OUT_H		0x41
  51:../Libraries/AQ_Platform_MPU6000/Platform_MPU6000.h **** #define MPUREG_TEMP_OUT_L		0x42
  52:../Libraries/AQ_Platform_MPU6000/Platform_MPU6000.h **** #define MPUREG_GYRO_XOUT_H		0x43
  53:../Libraries/AQ_Platform_MPU6000/Platform_MPU6000.h **** #define MPUREG_GYRO_XOUT_L		0x44
  54:../Libraries/AQ_Platform_MPU6000/Platform_MPU6000.h **** #define MPUREG_GYRO_YOUT_H		0x45
  55:../Libraries/AQ_Platform_MPU6000/Platform_MPU6000.h **** #define MPUREG_GYRO_YOUT_L		0x46
  56:../Libraries/AQ_Platform_MPU6000/Platform_MPU6000.h **** #define MPUREG_GYRO_ZOUT_H		0x47
  57:../Libraries/AQ_Platform_MPU6000/Platform_MPU6000.h **** #define MPUREG_GYRO_ZOUT_L		0x48
  58:../Libraries/AQ_Platform_MPU6000/Platform_MPU6000.h **** #define MPUREG_USER_CTRL		0x6A
  59:../Libraries/AQ_Platform_MPU6000/Platform_MPU6000.h **** #define MPUREG_PWR_MGMT_1		0x6B
  60:../Libraries/AQ_Platform_MPU6000/Platform_MPU6000.h **** #define MPUREG_PWR_MGMT_2		0x6C
  61:../Libraries/AQ_Platform_MPU6000/Platform_MPU6000.h **** #define MPUREG_FIFO_COUNTH		0x72
  62:../Libraries/AQ_Platform_MPU6000/Platform_MPU6000.h **** #define MPUREG_FIFO_COUNTL		0x73
  63:../Libraries/AQ_Platform_MPU6000/Platform_MPU6000.h **** #define MPUREG_FIFO_R_W			0x74
  64:../Libraries/AQ_Platform_MPU6000/Platform_MPU6000.h **** 
  65:../Libraries/AQ_Platform_MPU6000/Platform_MPU6000.h **** 
  66:../Libraries/AQ_Platform_MPU6000/Platform_MPU6000.h **** // Configuration bits
  67:../Libraries/AQ_Platform_MPU6000/Platform_MPU6000.h **** #define BIT_SLEEP				0x40
  68:../Libraries/AQ_Platform_MPU6000/Platform_MPU6000.h **** #define BIT_H_RESET				0x80
  69:../Libraries/AQ_Platform_MPU6000/Platform_MPU6000.h **** #define BITS_CLKSEL				0x07
  70:../Libraries/AQ_Platform_MPU6000/Platform_MPU6000.h **** #define MPU_CLK_SEL_PLLGYROX	0x01
  71:../Libraries/AQ_Platform_MPU6000/Platform_MPU6000.h **** #define MPU_CLK_SEL_PLLGYROZ	0x03
  72:../Libraries/AQ_Platform_MPU6000/Platform_MPU6000.h **** #define MPU_EXT_SYNC_GYROX		0x02
  73:../Libraries/AQ_Platform_MPU6000/Platform_MPU6000.h **** #define BITS_FS_250DPS          0x00
  74:../Libraries/AQ_Platform_MPU6000/Platform_MPU6000.h **** #define BITS_FS_500DPS          0x08
  75:../Libraries/AQ_Platform_MPU6000/Platform_MPU6000.h **** #define BITS_FS_1000DPS         0x10
  76:../Libraries/AQ_Platform_MPU6000/Platform_MPU6000.h **** #define BITS_FS_2000DPS         0x18
  77:../Libraries/AQ_Platform_MPU6000/Platform_MPU6000.h **** #define BITS_FS_MASK            0x18
  78:../Libraries/AQ_Platform_MPU6000/Platform_MPU6000.h **** #define BITS_DLPF_CFG_256HZ_NOLPF2  0x00
  79:../Libraries/AQ_Platform_MPU6000/Platform_MPU6000.h **** #define BITS_DLPF_CFG_188HZ         0x01
  80:../Libraries/AQ_Platform_MPU6000/Platform_MPU6000.h **** #define BITS_DLPF_CFG_98HZ          0x02
  81:../Libraries/AQ_Platform_MPU6000/Platform_MPU6000.h **** #define BITS_DLPF_CFG_42HZ          0x03
  82:../Libraries/AQ_Platform_MPU6000/Platform_MPU6000.h **** #define BITS_DLPF_CFG_20HZ          0x04
  83:../Libraries/AQ_Platform_MPU6000/Platform_MPU6000.h **** #define BITS_DLPF_CFG_10HZ          0x05
  84:../Libraries/AQ_Platform_MPU6000/Platform_MPU6000.h **** #define BITS_DLPF_CFG_5HZ           0x06
  85:../Libraries/AQ_Platform_MPU6000/Platform_MPU6000.h **** #define BITS_DLPF_CFG_2100HZ_NOLPF  0x07
  86:../Libraries/AQ_Platform_MPU6000/Platform_MPU6000.h **** #define BITS_DLPF_CFG_MASK          0x07
  87:../Libraries/AQ_Platform_MPU6000/Platform_MPU6000.h **** #define BIT_INT_ANYRD_2CLEAR    0x10
  88:../Libraries/AQ_Platform_MPU6000/Platform_MPU6000.h **** #define BIT_RAW_RDY_EN			0x01
  89:../Libraries/AQ_Platform_MPU6000/Platform_MPU6000.h **** #define BIT_I2C_IF_DIS          0x10
  90:../Libraries/AQ_Platform_MPU6000/Platform_MPU6000.h **** #define BIT_INT_STATUS_DATA		0x01
  91:../Libraries/AQ_Platform_MPU6000/Platform_MPU6000.h **** 
  92:../Libraries/AQ_Platform_MPU6000/Platform_MPU6000.h **** 
  93:../Libraries/AQ_Platform_MPU6000/Platform_MPU6000.h **** typedef struct {
  94:../Libraries/AQ_Platform_MPU6000/Platform_MPU6000.h ****   short x;
  95:../Libraries/AQ_Platform_MPU6000/Platform_MPU6000.h ****   short y;
  96:../Libraries/AQ_Platform_MPU6000/Platform_MPU6000.h ****   short z;
  97:../Libraries/AQ_Platform_MPU6000/Platform_MPU6000.h **** } tAxis;
  98:../Libraries/AQ_Platform_MPU6000/Platform_MPU6000.h **** 
  99:../Libraries/AQ_Platform_MPU6000/Platform_MPU6000.h **** union uMPU6000 {
 100:../Libraries/AQ_Platform_MPU6000/Platform_MPU6000.h ****   unsigned char rawByte[];
 101:../Libraries/AQ_Platform_MPU6000/Platform_MPU6000.h ****   unsigned short rawWord[];
 102:../Libraries/AQ_Platform_MPU6000/Platform_MPU6000.h ****   struct {
 103:../Libraries/AQ_Platform_MPU6000/Platform_MPU6000.h **** 	tAxis accel;
 104:../Libraries/AQ_Platform_MPU6000/Platform_MPU6000.h **** 	short temperature;
 105:../Libraries/AQ_Platform_MPU6000/Platform_MPU6000.h **** 	tAxis gyro;
 106:../Libraries/AQ_Platform_MPU6000/Platform_MPU6000.h ****   } data;
 107:../Libraries/AQ_Platform_MPU6000/Platform_MPU6000.h **** } MPU6000;
 108:../Libraries/AQ_Platform_MPU6000/Platform_MPU6000.h **** 
 109:../Libraries/AQ_Platform_MPU6000/Platform_MPU6000.h **** 
 110:../Libraries/AQ_Platform_MPU6000/Platform_MPU6000.h **** #ifdef MPU6000_I2C
 111:../Libraries/AQ_Platform_MPU6000/Platform_MPU6000.h ****   #ifndef MPU6000_I2C_ADDRESS
 112:../Libraries/AQ_Platform_MPU6000/Platform_MPU6000.h **** 	#define MPU6000_I2C_ADDRESS 0x68
 113:../Libraries/AQ_Platform_MPU6000/Platform_MPU6000.h ****   #endif
 114:../Libraries/AQ_Platform_MPU6000/Platform_MPU6000.h **** #else
 115:../Libraries/AQ_Platform_MPU6000/Platform_MPU6000.h ****   #include <HardwareSPIExt.h>
 116:../Libraries/AQ_Platform_MPU6000/Platform_MPU6000.h ****   HardwareSPIExt spiMPU6000(4);
 117:../Libraries/AQ_Platform_MPU6000/Platform_MPU6000.h **** #endif
 118:../Libraries/AQ_Platform_MPU6000/Platform_MPU6000.h **** 
 119:../Libraries/AQ_Platform_MPU6000/Platform_MPU6000.h **** void MPU6000_SpiLowSpeed()
 120:../Libraries/AQ_Platform_MPU6000/Platform_MPU6000.h **** {
 1155              		.loc 10 120 0
 1156              		.cfi_startproc
 1157              		@ args = 0, pretend = 0, frame = 0
 1158              		@ frame_needed = 0, uses_anonymous_args = 0
 1159              		@ link register save eliminated.
 121:../Libraries/AQ_Platform_MPU6000/Platform_MPU6000.h ****   #ifndef MPU6000_I2C
 122:../Libraries/AQ_Platform_MPU6000/Platform_MPU6000.h **** 	spiMPU6000.begin(SPI_562_500KHZ, MSBFIRST, 3);
 1160              		.loc 10 122 0
 1161 0000 0248     		ldr	r0, .L64
 1162 0002 0521     		movs	r1, #5
 1163 0004 0122     		movs	r2, #1
 1164 0006 0323     		movs	r3, #3
 123:../Libraries/AQ_Platform_MPU6000/Platform_MPU6000.h ****   #endif
 124:../Libraries/AQ_Platform_MPU6000/Platform_MPU6000.h **** }
 1165              		.loc 10 124 0
 122:../Libraries/AQ_Platform_MPU6000/Platform_MPU6000.h **** 	spiMPU6000.begin(SPI_562_500KHZ, MSBFIRST, 3);
 1166              		.loc 10 122 0
 1167 0008 FFF7FEBF 		b	_ZN14HardwareSPIExt5beginE12SPIFrequencyjj
 1168              	.L65:
 1169              		.align	2
 1170              	.L64:
 1171 000c 00000000 		.word	.LANCHOR11
 1172              		.cfi_endproc
 1173              	.LFE140:
 1175              		.section	.text._Z20MPU6000_SpiHighSpeedv,"ax",%progbits
 1176              		.align	1
 1177              		.global	_Z20MPU6000_SpiHighSpeedv
 1178              		.thumb
 1179              		.thumb_func
 1181              	_Z20MPU6000_SpiHighSpeedv:
 1182              	.LFB141:
 125:../Libraries/AQ_Platform_MPU6000/Platform_MPU6000.h **** 
 126:../Libraries/AQ_Platform_MPU6000/Platform_MPU6000.h **** void MPU6000_SpiHighSpeed()
 127:../Libraries/AQ_Platform_MPU6000/Platform_MPU6000.h **** {
 1183              		.loc 10 127 0
 1184              		.cfi_startproc
 1185              		@ args = 0, pretend = 0, frame = 0
 1186              		@ frame_needed = 0, uses_anonymous_args = 0
 1187 0000 10B5     		push	{r4, lr}
 1188              	.LCFI7:
 1189              		.cfi_def_cfa_offset 8
 1190              		.cfi_offset 14, -4
 1191              		.cfi_offset 4, -8
 128:../Libraries/AQ_Platform_MPU6000/Platform_MPU6000.h ****   #ifndef MPU6000_I2C
 129:../Libraries/AQ_Platform_MPU6000/Platform_MPU6000.h **** 	spiMPU6000.end();
 1192              		.loc 10 129 0
 1193 0002 064C     		ldr	r4, .L67
 1194 0004 2046     		mov	r0, r4
 1195 0006 FFF7FEFF 		bl	_ZN11HardwareSPI3endEv
 130:../Libraries/AQ_Platform_MPU6000/Platform_MPU6000.h ****     spiMPU6000.begin(SPI_9MHZ, MSBFIRST, 3);
 1196              		.loc 10 130 0
 1197 000a 0121     		movs	r1, #1
 1198 000c 2046     		mov	r0, r4
 1199 000e 0A46     		mov	r2, r1
 1200 0010 0323     		movs	r3, #3
 131:../Libraries/AQ_Platform_MPU6000/Platform_MPU6000.h ****   #endif
 132:../Libraries/AQ_Platform_MPU6000/Platform_MPU6000.h **** }
 1201              		.loc 10 132 0
 1202 0012 BDE81040 		pop	{r4, lr}
 130:../Libraries/AQ_Platform_MPU6000/Platform_MPU6000.h ****     spiMPU6000.begin(SPI_9MHZ, MSBFIRST, 3);
 1203              		.loc 10 130 0
 1204 0016 FFF7FEBF 		b	_ZN14HardwareSPIExt5beginE12SPIFrequencyjj
 1205              	.L68:
 1206 001a 00BF     		.align	2
 1207              	.L67:
 1208 001c 00000000 		.word	.LANCHOR11
 1209              		.cfi_endproc
 1210              	.LFE141:
 1212              		.section	.text._Z16MPU6000_WriteRegih,"ax",%progbits
 1213              		.align	1
 1214              		.global	_Z16MPU6000_WriteRegih
 1215              		.thumb
 1216              		.thumb_func
 1218              	_Z16MPU6000_WriteRegih:
 1219              	.LFB142:
 133:../Libraries/AQ_Platform_MPU6000/Platform_MPU6000.h **** 
 134:../Libraries/AQ_Platform_MPU6000/Platform_MPU6000.h **** void MPU6000_WriteReg(int addr, byte data)
 135:../Libraries/AQ_Platform_MPU6000/Platform_MPU6000.h **** {
 1220              		.loc 10 135 0
 1221              		.cfi_startproc
 1222              		@ args = 0, pretend = 0, frame = 0
 1223              		@ frame_needed = 0, uses_anonymous_args = 0
 1224              	.LVL77:
 1225 0000 08B5     		push	{r3, lr}
 1226              	.LCFI8:
 1227              		.cfi_def_cfa_offset 8
 1228              		.cfi_offset 14, -4
 1229              		.cfi_offset 3, -8
 1230              		.loc 10 135 0
 1231 0002 0346     		mov	r3, r0
 1232 0004 0A46     		mov	r2, r1
 136:../Libraries/AQ_Platform_MPU6000/Platform_MPU6000.h ****   #ifdef MPU6000_I2C
 137:../Libraries/AQ_Platform_MPU6000/Platform_MPU6000.h **** 	updateRegisterI2C(MPU6000_I2C_ADDRESS, addr, data);
 138:../Libraries/AQ_Platform_MPU6000/Platform_MPU6000.h ****   #else
 139:../Libraries/AQ_Platform_MPU6000/Platform_MPU6000.h **** 	spiMPU6000.Write(addr, data);
 1233              		.loc 10 139 0
 1234 0006 0448     		ldr	r0, .L70
 1235              	.LVL78:
 1236 0008 1946     		mov	r1, r3
 1237              	.LVL79:
 1238 000a FFF7FEFF 		bl	_ZN14HardwareSPIExt5WriteEih
 1239              	.LVL80:
 140:../Libraries/AQ_Platform_MPU6000/Platform_MPU6000.h ****   #endif
 141:../Libraries/AQ_Platform_MPU6000/Platform_MPU6000.h ****   delay(1);
 1240              		.loc 10 141 0
 1241 000e 0120     		movs	r0, #1
 142:../Libraries/AQ_Platform_MPU6000/Platform_MPU6000.h **** }
 1242              		.loc 10 142 0
 1243 0010 BDE80840 		pop	{r3, lr}
 141:../Libraries/AQ_Platform_MPU6000/Platform_MPU6000.h ****   delay(1);
 1244              		.loc 10 141 0
 1245 0014 FFF7FEBF 		b	_Z5delaym
 1246              	.L71:
 1247              		.align	2
 1248              	.L70:
 1249 0018 00000000 		.word	.LANCHOR11
 1250              		.cfi_endproc
 1251              	.LFE142:
 1253              		.section	.text._Z15MPU6000_ReadRegi,"ax",%progbits
 1254              		.align	1
 1255              		.global	_Z15MPU6000_ReadRegi
 1256              		.thumb
 1257              		.thumb_func
 1259              	_Z15MPU6000_ReadRegi:
 1260              	.LFB143:
 143:../Libraries/AQ_Platform_MPU6000/Platform_MPU6000.h **** 
 144:../Libraries/AQ_Platform_MPU6000/Platform_MPU6000.h **** byte MPU6000_ReadReg(int addr)
 145:../Libraries/AQ_Platform_MPU6000/Platform_MPU6000.h **** {
 1261              		.loc 10 145 0
 1262              		.cfi_startproc
 1263              		@ args = 0, pretend = 0, frame = 0
 1264              		@ frame_needed = 0, uses_anonymous_args = 0
 1265              	.LVL81:
 1266 0000 10B5     		push	{r4, lr}
 1267              	.LCFI9:
 1268              		.cfi_def_cfa_offset 8
 1269              		.cfi_offset 14, -4
 1270              		.cfi_offset 4, -8
 1271              		.loc 10 145 0
 1272 0002 0146     		mov	r1, r0
 1273              	.LBB35:
 146:../Libraries/AQ_Platform_MPU6000/Platform_MPU6000.h ****   #ifdef MPU6000_I2C
 147:../Libraries/AQ_Platform_MPU6000/Platform_MPU6000.h **** 	sendByteI2C(MPU6000_I2C_ADDRESS, addr);
 148:../Libraries/AQ_Platform_MPU6000/Platform_MPU6000.h **** 	byte data = readByteI2C(MPU6000_I2C_ADDRESS);
 149:../Libraries/AQ_Platform_MPU6000/Platform_MPU6000.h ****   #else
 150:../Libraries/AQ_Platform_MPU6000/Platform_MPU6000.h **** 	byte data = spiMPU6000.Read(addr);
 1274              		.loc 10 150 0
 1275 0004 0448     		ldr	r0, .L73
 1276              	.LVL82:
 1277 0006 FFF7FEFF 		bl	_ZN14HardwareSPIExt4ReadEi
 1278              	.LVL83:
 1279 000a 0446     		mov	r4, r0
 1280              	.LVL84:
 151:../Libraries/AQ_Platform_MPU6000/Platform_MPU6000.h ****   #endif
 152:../Libraries/AQ_Platform_MPU6000/Platform_MPU6000.h ****   delay(1);
 1281              		.loc 10 152 0
 1282 000c 0120     		movs	r0, #1
 1283              	.LVL85:
 1284 000e FFF7FEFF 		bl	_Z5delaym
 1285              	.LBE35:
 153:../Libraries/AQ_Platform_MPU6000/Platform_MPU6000.h ****   return data;
 154:../Libraries/AQ_Platform_MPU6000/Platform_MPU6000.h **** }
 1286              		.loc 10 154 0
 1287 0012 2046     		mov	r0, r4
 1288 0014 10BD     		pop	{r4, pc}
 1289              	.L74:
 1290 0016 00BF     		.align	2
 1291              	.L73:
 1292 0018 00000000 		.word	.LANCHOR11
 1293              		.cfi_endproc
 1294              	.LFE143:
 1296              		.section	.text._Z24initializeMPU6000Sensorsv,"ax",%progbits
 1297              		.align	1
 1298              		.global	_Z24initializeMPU6000Sensorsv
 1299              		.thumb
 1300              		.thumb_func
 1302              	_Z24initializeMPU6000Sensorsv:
 1303              	.LFB144:
 155:../Libraries/AQ_Platform_MPU6000/Platform_MPU6000.h **** 
 156:../Libraries/AQ_Platform_MPU6000/Platform_MPU6000.h **** bool initializeMPU6000SensorsDone = false;
 157:../Libraries/AQ_Platform_MPU6000/Platform_MPU6000.h **** void initializeMPU6000Sensors()
 158:../Libraries/AQ_Platform_MPU6000/Platform_MPU6000.h **** {
 1304              		.loc 10 158 0
 1305              		.cfi_startproc
 1306              		@ args = 0, pretend = 0, frame = 0
 1307              		@ frame_needed = 0, uses_anonymous_args = 0
 1308              	.LBB36:
 159:../Libraries/AQ_Platform_MPU6000/Platform_MPU6000.h ****   if(initializeMPU6000SensorsDone) {
 1309              		.loc 10 159 0
 1310 0000 1E4B     		ldr	r3, .L77
 1311              	.LBE36:
 158:../Libraries/AQ_Platform_MPU6000/Platform_MPU6000.h **** {
 1312              		.loc 10 158 0
 1313 0002 10B5     		push	{r4, lr}
 1314              	.LCFI10:
 1315              		.cfi_def_cfa_offset 8
 1316              		.cfi_offset 14, -4
 1317              		.cfi_offset 4, -8
 1318              	.LBB37:
 1319              		.loc 10 159 0
 1320 0004 1C78     		ldrb	r4, [r3, #0]	@ zero_extendqisi2
 1321 0006 002C     		cmp	r4, #0
 1322 0008 36D1     		bne	.L75
 160:../Libraries/AQ_Platform_MPU6000/Platform_MPU6000.h **** 	return;
 161:../Libraries/AQ_Platform_MPU6000/Platform_MPU6000.h ****   }
 162:../Libraries/AQ_Platform_MPU6000/Platform_MPU6000.h ****   initializeMPU6000SensorsDone = true;
 1323              		.loc 10 162 0
 1324 000a 0122     		movs	r2, #1
 1325 000c 1A70     		strb	r2, [r3, #0]
 163:../Libraries/AQ_Platform_MPU6000/Platform_MPU6000.h **** 
 164:../Libraries/AQ_Platform_MPU6000/Platform_MPU6000.h ****   MPU6000_SpiLowSpeed();
 1326              		.loc 10 164 0
 1327 000e FFF7FEFF 		bl	_Z19MPU6000_SpiLowSpeedv
 165:../Libraries/AQ_Platform_MPU6000/Platform_MPU6000.h **** 
 166:../Libraries/AQ_Platform_MPU6000/Platform_MPU6000.h ****   unsigned char val;
 167:../Libraries/AQ_Platform_MPU6000/Platform_MPU6000.h **** 
 168:../Libraries/AQ_Platform_MPU6000/Platform_MPU6000.h ****   val = MPU6000_ReadReg(MPUREG_WHOAMI);
 1328              		.loc 10 168 0
 1329 0012 7520     		movs	r0, #117
 1330 0014 FFF7FEFF 		bl	_Z15MPU6000_ReadRegi
 1331              	.LVL86:
 169:../Libraries/AQ_Platform_MPU6000/Platform_MPU6000.h ****   if((val&0x7E) == 0x68) {
 1332              		.loc 10 169 0
 1333 0018 00F07E00 		and	r0, r0, #126
 1334              	.LVL87:
 1335 001c 6828     		cmp	r0, #104
 1336 001e 2BD1     		bne	.L75
 170:../Libraries/AQ_Platform_MPU6000/Platform_MPU6000.h **** 	vehicleState |= GYRO_DETECTED;
 171:../Libraries/AQ_Platform_MPU6000/Platform_MPU6000.h **** 	vehicleState |= ACCEL_DETECTED;
 1337              		.loc 10 171 0
 1338 0020 174B     		ldr	r3, .L77+4
 1339 0022 1868     		ldr	r0, [r3, #0]
 1340 0024 40F00301 		orr	r1, r0, #3
 1341 0028 1960     		str	r1, [r3, #0]
 172:../Libraries/AQ_Platform_MPU6000/Platform_MPU6000.h ****   } 
 173:../Libraries/AQ_Platform_MPU6000/Platform_MPU6000.h ****   else {
 174:../Libraries/AQ_Platform_MPU6000/Platform_MPU6000.h **** 	return;
 175:../Libraries/AQ_Platform_MPU6000/Platform_MPU6000.h ****   }
 176:../Libraries/AQ_Platform_MPU6000/Platform_MPU6000.h **** 
 177:../Libraries/AQ_Platform_MPU6000/Platform_MPU6000.h ****   // Chip reset
 178:../Libraries/AQ_Platform_MPU6000/Platform_MPU6000.h ****   MPU6000_WriteReg(MPUREG_PWR_MGMT_1, BIT_H_RESET);
 1342              		.loc 10 178 0
 1343 002a 6B20     		movs	r0, #107
 1344 002c 8021     		movs	r1, #128
 1345 002e FFF7FEFF 		bl	_Z16MPU6000_WriteRegih
 179:../Libraries/AQ_Platform_MPU6000/Platform_MPU6000.h ****   delay(100);  // Startup time delay
 1346              		.loc 10 179 0
 1347 0032 6420     		movs	r0, #100
 1348 0034 FFF7FEFF 		bl	_Z5delaym
 180:../Libraries/AQ_Platform_MPU6000/Platform_MPU6000.h **** 
 181:../Libraries/AQ_Platform_MPU6000/Platform_MPU6000.h ****   #ifndef MPU6000_I2C
 182:../Libraries/AQ_Platform_MPU6000/Platform_MPU6000.h ****     // Disable I2C bus
 183:../Libraries/AQ_Platform_MPU6000/Platform_MPU6000.h ****     MPU6000_WriteReg(MPUREG_USER_CTRL, BIT_I2C_IF_DIS);
 1349              		.loc 10 183 0
 1350 0038 6A20     		movs	r0, #106
 1351 003a 1021     		movs	r1, #16
 1352 003c FFF7FEFF 		bl	_Z16MPU6000_WriteRegih
 184:../Libraries/AQ_Platform_MPU6000/Platform_MPU6000.h ****   #endif
 185:../Libraries/AQ_Platform_MPU6000/Platform_MPU6000.h **** 
 186:../Libraries/AQ_Platform_MPU6000/Platform_MPU6000.h ****   // Wake Up device and select GyroZ clock (better performance)
 187:../Libraries/AQ_Platform_MPU6000/Platform_MPU6000.h ****   MPU6000_WriteReg(MPUREG_PWR_MGMT_1, MPU_CLK_SEL_PLLGYROZ);
 1353              		.loc 10 187 0
 1354 0040 6B20     		movs	r0, #107
 1355 0042 0321     		movs	r1, #3
 1356 0044 FFF7FEFF 		bl	_Z16MPU6000_WriteRegih
 188:../Libraries/AQ_Platform_MPU6000/Platform_MPU6000.h ****   MPU6000_WriteReg(MPUREG_PWR_MGMT_2, 0);
 1357              		.loc 10 188 0
 1358 0048 6C20     		movs	r0, #108
 1359 004a 2146     		mov	r1, r4
 1360 004c FFF7FEFF 		bl	_Z16MPU6000_WriteRegih
 189:../Libraries/AQ_Platform_MPU6000/Platform_MPU6000.h **** 
 190:../Libraries/AQ_Platform_MPU6000/Platform_MPU6000.h ****   // SAMPLE RATE
 191:../Libraries/AQ_Platform_MPU6000/Platform_MPU6000.h ****   MPU6000_WriteReg(MPUREG_SMPLRT_DIV,0x00);     // Sample rate = 1kHz
 1361              		.loc 10 191 0
 1362 0050 1920     		movs	r0, #25
 1363 0052 2146     		mov	r1, r4
 1364 0054 FFF7FEFF 		bl	_Z16MPU6000_WriteRegih
 192:../Libraries/AQ_Platform_MPU6000/Platform_MPU6000.h **** 
 193:../Libraries/AQ_Platform_MPU6000/Platform_MPU6000.h ****   // FS & DLPF   FS=1000/s, DLPF = 42Hz (low pass filter)
 194:../Libraries/AQ_Platform_MPU6000/Platform_MPU6000.h ****   MPU6000_WriteReg(MPUREG_CONFIG, BITS_DLPF_CFG_42HZ);
 1365              		.loc 10 194 0
 1366 0058 1A20     		movs	r0, #26
 1367 005a 0321     		movs	r1, #3
 1368 005c FFF7FEFF 		bl	_Z16MPU6000_WriteRegih
 195:../Libraries/AQ_Platform_MPU6000/Platform_MPU6000.h ****   MPU6000_WriteReg(MPUREG_GYRO_CONFIG,BITS_FS_1000DPS);  // Gyro scale 1000/s
 1369              		.loc 10 195 0
 1370 0060 1B20     		movs	r0, #27
 1371 0062 1021     		movs	r1, #16
 1372 0064 FFF7FEFF 		bl	_Z16MPU6000_WriteRegih
 196:../Libraries/AQ_Platform_MPU6000/Platform_MPU6000.h ****   MPU6000_WriteReg(MPUREG_ACCEL_CONFIG,0x08);   // Accel scale +-4g (4096LSB/g)
 1373              		.loc 10 196 0
 1374 0068 1C20     		movs	r0, #28
 1375 006a 0821     		movs	r1, #8
 1376 006c FFF7FEFF 		bl	_Z16MPU6000_WriteRegih
 1377              	.LBE37:
 197:../Libraries/AQ_Platform_MPU6000/Platform_MPU6000.h **** 
 198:../Libraries/AQ_Platform_MPU6000/Platform_MPU6000.h **** 
 199:../Libraries/AQ_Platform_MPU6000/Platform_MPU6000.h ****   // switch to high clock rate
 200:../Libraries/AQ_Platform_MPU6000/Platform_MPU6000.h ****   MPU6000_SpiHighSpeed();
 201:../Libraries/AQ_Platform_MPU6000/Platform_MPU6000.h **** }
 1378              		.loc 10 201 0
 1379 0070 BDE81040 		pop	{r4, lr}
 1380              	.LBB38:
 200:../Libraries/AQ_Platform_MPU6000/Platform_MPU6000.h ****   MPU6000_SpiHighSpeed();
 1381              		.loc 10 200 0
 1382 0074 FFF7FEBF 		b	_Z20MPU6000_SpiHighSpeedv
 1383              	.L75:
 1384 0078 10BD     		pop	{r4, pc}
 1385              	.L78:
 1386 007a 00BF     		.align	2
 1387              	.L77:
 1388 007c 00000000 		.word	.LANCHOR12
 1389 0080 00000000 		.word	.LANCHOR13
 1390              	.LBE38:
 1391              		.cfi_endproc
 1392              	.LFE144:
 1394              		.section	.text._Z15MPU6000SwapDataPhi,"ax",%progbits
 1395              		.align	1
 1396              		.global	_Z15MPU6000SwapDataPhi
 1397              		.thumb
 1398              		.thumb_func
 1400              	_Z15MPU6000SwapDataPhi:
 1401              	.LFB145:
 202:../Libraries/AQ_Platform_MPU6000/Platform_MPU6000.h **** 
 203:../Libraries/AQ_Platform_MPU6000/Platform_MPU6000.h **** 
 204:../Libraries/AQ_Platform_MPU6000/Platform_MPU6000.h **** void MPU6000SwapData(unsigned char *data, int datalen)
 205:../Libraries/AQ_Platform_MPU6000/Platform_MPU6000.h **** {
 1402              		.loc 10 205 0
 1403              		.cfi_startproc
 1404              		@ args = 0, pretend = 0, frame = 0
 1405              		@ frame_needed = 0, uses_anonymous_args = 0
 1406              		@ link register save eliminated.
 1407              	.LVL88:
 1408              	.LBB39:
 206:../Libraries/AQ_Platform_MPU6000/Platform_MPU6000.h ****   datalen /= 2;
 1409              		.loc 10 206 0
 1410 0000 01EBD171 		add	r1, r1, r1, lsr #31
 1411              	.LVL89:
 1412 0004 4910     		asrs	r1, r1, #1
 1413              	.LVL90:
 207:../Libraries/AQ_Platform_MPU6000/Platform_MPU6000.h ****   while(datalen--) {
 1414              		.loc 10 207 0
 1415 0006 04E0     		b	.L80
 1416              	.LVL91:
 1417              	.L81:
 1418              	.LBB40:
 208:../Libraries/AQ_Platform_MPU6000/Platform_MPU6000.h ****     unsigned char t = data[0];
 1419              		.loc 10 208 0
 1420 0008 0378     		ldrb	r3, [r0, #0]	@ zero_extendqisi2
 1421              	.LVL92:
 209:../Libraries/AQ_Platform_MPU6000/Platform_MPU6000.h ****     data[0] = data[1];
 1422              		.loc 10 209 0
 1423 000a 4278     		ldrb	r2, [r0, #1]	@ zero_extendqisi2
 210:../Libraries/AQ_Platform_MPU6000/Platform_MPU6000.h ****     data[1] = t;
 1424              		.loc 10 210 0
 1425 000c 4370     		strb	r3, [r0, #1]
 209:../Libraries/AQ_Platform_MPU6000/Platform_MPU6000.h ****     data[0] = data[1];
 1426              		.loc 10 209 0
 1427 000e 0270     		strb	r2, [r0, #0]
 211:../Libraries/AQ_Platform_MPU6000/Platform_MPU6000.h ****     data += 2;
 1428              		.loc 10 211 0
 1429 0010 0230     		adds	r0, r0, #2
 1430              	.LVL93:
 1431              	.L80:
 1432              	.LBE40:
 207:../Libraries/AQ_Platform_MPU6000/Platform_MPU6000.h ****   while(datalen--) {
 1433              		.loc 10 207 0 discriminator 1
 1434 0012 11F1FF31 		adds	r1, r1, #-1
 1435              	.LVL94:
 1436 0016 F7D2     		bcs	.L81
 1437              	.LBE39:
 212:../Libraries/AQ_Platform_MPU6000/Platform_MPU6000.h ****   }
 213:../Libraries/AQ_Platform_MPU6000/Platform_MPU6000.h **** }
 1438              		.loc 10 213 0
 1439 0018 7047     		bx	lr
 1440              		.cfi_endproc
 1441              	.LFE145:
 1443              		.section	.text._Z18readMPU6000Sensorsv,"ax",%progbits
 1444              		.align	1
 1445              		.global	_Z18readMPU6000Sensorsv
 1446              		.thumb
 1447              		.thumb_func
 1449              	_Z18readMPU6000Sensorsv:
 1450              	.LFB146:
 214:../Libraries/AQ_Platform_MPU6000/Platform_MPU6000.h **** 
 215:../Libraries/AQ_Platform_MPU6000/Platform_MPU6000.h **** void readMPU6000Sensors()
 216:../Libraries/AQ_Platform_MPU6000/Platform_MPU6000.h **** {
 1451              		.loc 10 216 0
 1452              		.cfi_startproc
 1453              		@ args = 0, pretend = 0, frame = 0
 1454              		@ frame_needed = 0, uses_anonymous_args = 0
 1455 0000 10B5     		push	{r4, lr}
 1456              	.LCFI11:
 1457              		.cfi_def_cfa_offset 8
 1458              		.cfi_offset 14, -4
 1459              		.cfi_offset 4, -8
 217:../Libraries/AQ_Platform_MPU6000/Platform_MPU6000.h ****   #ifdef MPU6000_I2C
 218:../Libraries/AQ_Platform_MPU6000/Platform_MPU6000.h ****     sendByteI2C(MPU6000_I2C_ADDRESS, MPUREG_ACCEL_XOUT_H);
 219:../Libraries/AQ_Platform_MPU6000/Platform_MPU6000.h ****     Wire.requestFrom(MPU6000_I2C_ADDRESS, sizeof(MPU6000));
 220:../Libraries/AQ_Platform_MPU6000/Platform_MPU6000.h ****     for(byte i=0; i<sizeof(MPU6000)/sizeof(short); i++) {
 221:../Libraries/AQ_Platform_MPU6000/Platform_MPU6000.h ****       MPU6000.rawWord[i] = readWordI2C();
 222:../Libraries/AQ_Platform_MPU6000/Platform_MPU6000.h ****     }
 223:../Libraries/AQ_Platform_MPU6000/Platform_MPU6000.h ****   #else
 224:../Libraries/AQ_Platform_MPU6000/Platform_MPU6000.h ****     spiMPU6000.Read(MPUREG_ACCEL_XOUT_H, MPU6000.rawByte, sizeof(MPU6000));
 1460              		.loc 10 224 0
 1461 0002 064C     		ldr	r4, .L83
 1462 0004 0648     		ldr	r0, .L83+4
 1463 0006 3B21     		movs	r1, #59
 1464 0008 2246     		mov	r2, r4
 1465 000a 0E23     		movs	r3, #14
 1466 000c FFF7FEFF 		bl	_ZN14HardwareSPIExt4ReadEiPhi
 225:../Libraries/AQ_Platform_MPU6000/Platform_MPU6000.h ****     MPU6000SwapData(MPU6000.rawByte, sizeof(MPU6000));
 1467              		.loc 10 225 0
 1468 0010 2046     		mov	r0, r4
 1469 0012 0E21     		movs	r1, #14
 226:../Libraries/AQ_Platform_MPU6000/Platform_MPU6000.h ****   #endif
 227:../Libraries/AQ_Platform_MPU6000/Platform_MPU6000.h **** }
 1470              		.loc 10 227 0
 1471 0014 BDE81040 		pop	{r4, lr}
 225:../Libraries/AQ_Platform_MPU6000/Platform_MPU6000.h ****     MPU6000SwapData(MPU6000.rawByte, sizeof(MPU6000));
 1472              		.loc 10 225 0
 1473 0018 FFF7FEBF 		b	_Z15MPU6000SwapDataPhi
 1474              	.L84:
 1475              		.align	2
 1476              	.L83:
 1477 001c 00000000 		.word	.LANCHOR14
 1478 0020 00000000 		.word	.LANCHOR11
 1479              		.cfi_endproc
 1480              	.LFE146:
 1482              		.section	.text._Z16readMPU6000Accelv,"ax",%progbits
 1483              		.align	1
 1484              		.global	_Z16readMPU6000Accelv
 1485              		.thumb
 1486              		.thumb_func
 1488              	_Z16readMPU6000Accelv:
 1489              	.LFB147:
 228:../Libraries/AQ_Platform_MPU6000/Platform_MPU6000.h **** 
 229:../Libraries/AQ_Platform_MPU6000/Platform_MPU6000.h **** int readMPU6000Count=0;
 230:../Libraries/AQ_Platform_MPU6000/Platform_MPU6000.h **** int readMPU6000AccelCount=0;
 231:../Libraries/AQ_Platform_MPU6000/Platform_MPU6000.h **** int readMPU6000GyroCount=0;
 232:../Libraries/AQ_Platform_MPU6000/Platform_MPU6000.h **** 
 233:../Libraries/AQ_Platform_MPU6000/Platform_MPU6000.h **** void readMPU6000Accel()
 234:../Libraries/AQ_Platform_MPU6000/Platform_MPU6000.h **** {
 1490              		.loc 10 234 0
 1491              		.cfi_startproc
 1492              		@ args = 0, pretend = 0, frame = 0
 1493              		@ frame_needed = 0, uses_anonymous_args = 0
 235:../Libraries/AQ_Platform_MPU6000/Platform_MPU6000.h ****   readMPU6000AccelCount++;
 1494              		.loc 10 235 0
 1495 0000 0748     		ldr	r0, .L87
 234:../Libraries/AQ_Platform_MPU6000/Platform_MPU6000.h **** {
 1496              		.loc 10 234 0
 1497 0002 10B5     		push	{r4, lr}
 1498              	.LCFI12:
 1499              		.cfi_def_cfa_offset 8
 1500              		.cfi_offset 14, -4
 1501              		.cfi_offset 4, -8
 236:../Libraries/AQ_Platform_MPU6000/Platform_MPU6000.h ****   if(readMPU6000AccelCount != readMPU6000Count) {
 1502              		.loc 10 236 0
 1503 0004 074C     		ldr	r4, .L87+4
 235:../Libraries/AQ_Platform_MPU6000/Platform_MPU6000.h ****   readMPU6000AccelCount++;
 1504              		.loc 10 235 0
 1505 0006 0168     		ldr	r1, [r0, #0]
 1506              		.loc 10 236 0
 1507 0008 2268     		ldr	r2, [r4, #0]
 235:../Libraries/AQ_Platform_MPU6000/Platform_MPU6000.h ****   readMPU6000AccelCount++;
 1508              		.loc 10 235 0
 1509 000a 4B1C     		adds	r3, r1, #1
 1510              		.loc 10 236 0
 1511 000c 9342     		cmp	r3, r2
 235:../Libraries/AQ_Platform_MPU6000/Platform_MPU6000.h ****   readMPU6000AccelCount++;
 1512              		.loc 10 235 0
 1513 000e 0360     		str	r3, [r0, #0]
 1514              		.loc 10 236 0
 1515 0010 04D0     		beq	.L85
 237:../Libraries/AQ_Platform_MPU6000/Platform_MPU6000.h ****     readMPU6000Sensors();
 1516              		.loc 10 237 0
 1517 0012 FFF7FEFF 		bl	_Z18readMPU6000Sensorsv
 238:../Libraries/AQ_Platform_MPU6000/Platform_MPU6000.h ****     readMPU6000Count++;
 1518              		.loc 10 238 0
 1519 0016 2368     		ldr	r3, [r4, #0]
 1520 0018 5A1C     		adds	r2, r3, #1
 1521 001a 2260     		str	r2, [r4, #0]
 1522              	.L85:
 1523 001c 10BD     		pop	{r4, pc}
 1524              	.L88:
 1525 001e 00BF     		.align	2
 1526              	.L87:
 1527 0020 00000000 		.word	.LANCHOR15
 1528 0024 00000000 		.word	.LANCHOR16
 1529              		.cfi_endproc
 1530              	.LFE147:
 1532              		.section	.text._Z15readMPU6000Gyrov,"ax",%progbits
 1533              		.align	1
 1534              		.global	_Z15readMPU6000Gyrov
 1535              		.thumb
 1536              		.thumb_func
 1538              	_Z15readMPU6000Gyrov:
 1539              	.LFB148:
 239:../Libraries/AQ_Platform_MPU6000/Platform_MPU6000.h ****   }
 240:../Libraries/AQ_Platform_MPU6000/Platform_MPU6000.h **** }
 241:../Libraries/AQ_Platform_MPU6000/Platform_MPU6000.h **** 
 242:../Libraries/AQ_Platform_MPU6000/Platform_MPU6000.h **** void readMPU6000Gyro()
 243:../Libraries/AQ_Platform_MPU6000/Platform_MPU6000.h **** {
 1540              		.loc 10 243 0
 1541              		.cfi_startproc
 1542              		@ args = 0, pretend = 0, frame = 0
 1543              		@ frame_needed = 0, uses_anonymous_args = 0
 1544 0000 10B5     		push	{r4, lr}
 1545              	.LCFI13:
 1546              		.cfi_def_cfa_offset 8
 1547              		.cfi_offset 14, -4
 1548              		.cfi_offset 4, -8
 244:../Libraries/AQ_Platform_MPU6000/Platform_MPU6000.h ****   readMPU6000GyroCount++;
 1549              		.loc 10 244 0
 1550 0002 074C     		ldr	r4, .L91
 245:../Libraries/AQ_Platform_MPU6000/Platform_MPU6000.h ****   if(readMPU6000GyroCount != readMPU6000Count) {
 1551              		.loc 10 245 0
 1552 0004 0748     		ldr	r0, .L91+4
 244:../Libraries/AQ_Platform_MPU6000/Platform_MPU6000.h ****   readMPU6000GyroCount++;
 1553              		.loc 10 244 0
 1554 0006 2168     		ldr	r1, [r4, #0]
 1555              		.loc 10 245 0
 1556 0008 0268     		ldr	r2, [r0, #0]
 244:../Libraries/AQ_Platform_MPU6000/Platform_MPU6000.h ****   readMPU6000GyroCount++;
 1557              		.loc 10 244 0
 1558 000a 4B1C     		adds	r3, r1, #1
 1559              		.loc 10 245 0
 1560 000c 9342     		cmp	r3, r2
 244:../Libraries/AQ_Platform_MPU6000/Platform_MPU6000.h ****   readMPU6000GyroCount++;
 1561              		.loc 10 244 0
 1562 000e 2360     		str	r3, [r4, #0]
 1563              		.loc 10 245 0
 1564 0010 04D0     		beq	.L89
 246:../Libraries/AQ_Platform_MPU6000/Platform_MPU6000.h ****     readMPU6000Sensors();
 1565              		.loc 10 246 0
 1566 0012 FFF7FEFF 		bl	_Z18readMPU6000Sensorsv
 247:../Libraries/AQ_Platform_MPU6000/Platform_MPU6000.h ****     readMPU6000GyroCount++;
 1567              		.loc 10 247 0
 1568 0016 2368     		ldr	r3, [r4, #0]
 1569 0018 5A1C     		adds	r2, r3, #1
 1570 001a 2260     		str	r2, [r4, #0]
 1571              	.L89:
 1572 001c 10BD     		pop	{r4, pc}
 1573              	.L92:
 1574 001e 00BF     		.align	2
 1575              	.L91:
 1576 0020 00000000 		.word	.LANCHOR17
 1577 0024 00000000 		.word	.LANCHOR16
 1578              		.cfi_endproc
 1579              	.LFE148:
 1581              		.section	.text._Z14initializeGyrov,"ax",%progbits
 1582              		.align	1
 1583              		.global	_Z14initializeGyrov
 1584              		.thumb
 1585              		.thumb_func
 1587              	_Z14initializeGyrov:
 1588              	.LFB149:
 1589              		.file 11 "../Libraries/AQ_Gyroscope/Gyroscope_MPU6000.h"
   1:../Libraries/AQ_Gyroscope/Gyroscope_MPU6000.h **** /*
   2:../Libraries/AQ_Gyroscope/Gyroscope_MPU6000.h ****   AeroQuad v3.0 - May 2011
   3:../Libraries/AQ_Gyroscope/Gyroscope_MPU6000.h ****   www.AeroQuad.com
   4:../Libraries/AQ_Gyroscope/Gyroscope_MPU6000.h ****   Copyright (c) 2011 Ted Carancho.  All rights reserved.
   5:../Libraries/AQ_Gyroscope/Gyroscope_MPU6000.h ****   An Open Source Arduino based multicopter.
   6:../Libraries/AQ_Gyroscope/Gyroscope_MPU6000.h **** 
   7:../Libraries/AQ_Gyroscope/Gyroscope_MPU6000.h ****   This program is free software: you can redistribute it and/or modify
   8:../Libraries/AQ_Gyroscope/Gyroscope_MPU6000.h ****   it under the terms of the GNU General Public License as published by
   9:../Libraries/AQ_Gyroscope/Gyroscope_MPU6000.h ****   the Free Software Foundation, either version 3 of the License, or
  10:../Libraries/AQ_Gyroscope/Gyroscope_MPU6000.h ****   (at your option) any later version.
  11:../Libraries/AQ_Gyroscope/Gyroscope_MPU6000.h **** 
  12:../Libraries/AQ_Gyroscope/Gyroscope_MPU6000.h ****   This program is distributed in the hope that it will be useful,
  13:../Libraries/AQ_Gyroscope/Gyroscope_MPU6000.h ****   but WITHOUT ANY WARRANTY; without even the implied warranty of
  14:../Libraries/AQ_Gyroscope/Gyroscope_MPU6000.h ****   MERCHANTABILITY or FITNESS FOR A PARTICULAR PURPOSE. See the
  15:../Libraries/AQ_Gyroscope/Gyroscope_MPU6000.h ****   GNU General Public License for more details.
  16:../Libraries/AQ_Gyroscope/Gyroscope_MPU6000.h **** 
  17:../Libraries/AQ_Gyroscope/Gyroscope_MPU6000.h ****   You should have received a copy of the GNU General Public License
  18:../Libraries/AQ_Gyroscope/Gyroscope_MPU6000.h ****   along with this program. If not, see <http://www.gnu.org/licenses/>.
  19:../Libraries/AQ_Gyroscope/Gyroscope_MPU6000.h **** */
  20:../Libraries/AQ_Gyroscope/Gyroscope_MPU6000.h **** 
  21:../Libraries/AQ_Gyroscope/Gyroscope_MPU6000.h **** #ifndef _AEROQUAD_GYROSCOPE_MPU6000_COMMON_H_
  22:../Libraries/AQ_Gyroscope/Gyroscope_MPU6000.h **** #define _AEROQUAD_GYROSCOPE_MPU6000_COMMON_H_
  23:../Libraries/AQ_Gyroscope/Gyroscope_MPU6000.h **** 
  24:../Libraries/AQ_Gyroscope/Gyroscope_MPU6000.h **** int gyroRaw[3] = {0,0,0};
  25:../Libraries/AQ_Gyroscope/Gyroscope_MPU6000.h **** 
  26:../Libraries/AQ_Gyroscope/Gyroscope_MPU6000.h **** #include <Platform_MPU6000.h>
  27:../Libraries/AQ_Gyroscope/Gyroscope_MPU6000.h **** #include <Gyroscope.h>
  28:../Libraries/AQ_Gyroscope/Gyroscope_MPU6000.h **** 
  29:../Libraries/AQ_Gyroscope/Gyroscope_MPU6000.h **** #define GYRO_CALIBRATION_TRESHOLD 25
  30:../Libraries/AQ_Gyroscope/Gyroscope_MPU6000.h **** 
  31:../Libraries/AQ_Gyroscope/Gyroscope_MPU6000.h **** void initializeGyro() {
 1590              		.loc 11 31 0
 1591              		.cfi_startproc
 1592              		@ args = 0, pretend = 0, frame = 0
 1593              		@ frame_needed = 0, uses_anonymous_args = 0
 1594              		@ link register save eliminated.
 1595              	.LVL95:
 1596              	.LBB41:
  32:../Libraries/AQ_Gyroscope/Gyroscope_MPU6000.h ****   float range = 2*1000.0;
  33:../Libraries/AQ_Gyroscope/Gyroscope_MPU6000.h ****   gyroScaleFactor = radians(range/65536.0);
 1597              		.loc 11 33 0
 1598 0000 024A     		ldr	r2, .L94
 1599 0002 034B     		ldr	r3, .L94+4
 1600 0004 1A60     		str	r2, [r3, #0]	@ float
 1601              	.LBE41:
  34:../Libraries/AQ_Gyroscope/Gyroscope_MPU6000.h **** 
  35:../Libraries/AQ_Gyroscope/Gyroscope_MPU6000.h ****   initializeMPU6000Sensors();
  36:../Libraries/AQ_Gyroscope/Gyroscope_MPU6000.h **** }
 1602              		.loc 11 36 0
 1603              	.LBB42:
  35:../Libraries/AQ_Gyroscope/Gyroscope_MPU6000.h ****   initializeMPU6000Sensors();
 1604              		.loc 11 35 0
 1605 0006 FFF7FEBF 		b	_Z24initializeMPU6000Sensorsv
 1606              	.L95:
 1607 000a 00BF     		.align	2
 1608              	.L94:
 1609 000c 58A00B3A 		.word	973840472
 1610 0010 00000000 		.word	.LANCHOR18
 1611              	.LBE42:
 1612              		.cfi_endproc
 1613              	.LFE149:
 1615              		.section	.text._Z17gyroUpdateHeadingv,"ax",%progbits
 1616              		.align	1
 1617              		.global	_Z17gyroUpdateHeadingv
 1618              		.thumb
 1619              		.thumb_func
 1621              	_Z17gyroUpdateHeadingv:
 1622              	.LFB150:
  37:../Libraries/AQ_Gyroscope/Gyroscope_MPU6000.h **** 
  38:../Libraries/AQ_Gyroscope/Gyroscope_MPU6000.h **** void gyroUpdateHeading()
  39:../Libraries/AQ_Gyroscope/Gyroscope_MPU6000.h **** {
 1623              		.loc 11 39 0
 1624              		.cfi_startproc
 1625              		@ args = 0, pretend = 0, frame = 0
 1626              		@ frame_needed = 0, uses_anonymous_args = 0
 1627 0000 08B5     		push	{r3, lr}
 1628              	.LCFI14:
 1629              		.cfi_def_cfa_offset 8
 1630              		.cfi_offset 14, -4
 1631              		.cfi_offset 3, -8
 1632              	.LBB43:
  40:../Libraries/AQ_Gyroscope/Gyroscope_MPU6000.h ****   long int currentTime = micros();
 1633              		.loc 11 40 0
 1634 0002 FFF7FEFF 		bl	_ZL6microsv
 1635              	.LVL96:
  41:../Libraries/AQ_Gyroscope/Gyroscope_MPU6000.h ****   if (gyroRate[ZAXIS] > (float)radians(1.0) || gyroRate[ZAXIS] < (float)radians(-1.0)) {
 1636              		.loc 11 41 0
 1637 0006 124B     		ldr	r3, .L100
 1638 0008 DFED127A 		flds	s15, .L100+4
 1639 000c 93ED027A 		flds	s14, [r3, #8]
 1640 0010 B4EEE77A 		fcmpes	s14, s15
 1641 0014 F1EE10FA 		fmstat
 1642 0018 0F4B     		ldr	r3, .L100+8
 1643 001a 06DC     		bgt	.L97
 1644              		.loc 11 41 0 is_stmt 0 discriminator 1
 1645 001c 9FED0F0A 		flds	s0, .L100+12
 1646 0020 B4EEC07A 		fcmpes	s14, s0
 1647 0024 F1EE10FA 		fmstat
 1648 0028 10D5     		bpl	.L98
 1649              	.L97:
  42:../Libraries/AQ_Gyroscope/Gyroscope_MPU6000.h ****     gyroHeading += gyroRate[ZAXIS] * ((currentTime - gyroLastMesuredTime) / 1000000.0);
 1650              		.loc 11 42 0 is_stmt 1
 1651 002a 1968     		ldr	r1, [r3, #0]
 1652 002c 0C4A     		ldr	r2, .L100+16
 1653 002e 411A     		subs	r1, r0, r1
 1654 0030 01EE901A 		fmsr	s3, r1	@ int
 1655 0034 9FED0B1A 		flds	s2, .L100+20
 1656 0038 F8EE616A 		fuitos	s13, s3
 1657 003c D2ED000A 		flds	s1, [r2, #0]
 1658 0040 C6EE816A 		fdivs	s13, s13, s2
 1659 0044 47EE260A 		fmacs	s1, s14, s13
 1660 0048 C2ED000A 		fsts	s1, [r2, #0]
 1661              	.L98:
  43:../Libraries/AQ_Gyroscope/Gyroscope_MPU6000.h ****   }
  44:../Libraries/AQ_Gyroscope/Gyroscope_MPU6000.h ****   gyroLastMesuredTime = currentTime;
 1662              		.loc 11 44 0
 1663 004c 1860     		str	r0, [r3, #0]
 1664              	.LBE43:
  45:../Libraries/AQ_Gyroscope/Gyroscope_MPU6000.h **** }
 1665              		.loc 11 45 0
 1666 004e 08BD     		pop	{r3, pc}
 1667              	.L101:
 1668              		.align	2
 1669              	.L100:
 1670 0050 00000000 		.word	.LANCHOR19
 1671 0054 35FA8E3C 		.word	1016003125
 1672 0058 00000000 		.word	.LANCHOR21
 1673 005c 35FA8EBC 		.word	-1131480523
 1674 0060 00000000 		.word	.LANCHOR20
 1675 0064 00247449 		.word	1232348160
 1676              		.cfi_endproc
 1677              	.LFE150:
 1679              		.section	.text._Z11measureGyrov,"ax",%progbits
 1680              		.align	1
 1681              		.global	_Z11measureGyrov
 1682              		.thumb
 1683              		.thumb_func
 1685              	_Z11measureGyrov:
 1686              	.LFB151:
  46:../Libraries/AQ_Gyroscope/Gyroscope_MPU6000.h **** 
  47:../Libraries/AQ_Gyroscope/Gyroscope_MPU6000.h **** void measureGyro() {
 1687              		.loc 11 47 0
 1688              		.cfi_startproc
 1689              		@ args = 0, pretend = 0, frame = 16
 1690              		@ frame_needed = 0, uses_anonymous_args = 0
 1691 0000 30B5     		push	{r4, r5, lr}
 1692              	.LCFI15:
 1693              		.cfi_def_cfa_offset 12
 1694              		.cfi_offset 14, -4
 1695              		.cfi_offset 5, -8
 1696              		.cfi_offset 4, -12
 1697 0002 85B0     		sub	sp, sp, #20
 1698              	.LCFI16:
 1699              		.cfi_def_cfa_offset 32
 1700              	.LBB44:
  48:../Libraries/AQ_Gyroscope/Gyroscope_MPU6000.h ****   readMPU6000Gyro();
 1701              		.loc 11 48 0
 1702 0004 FFF7FEFF 		bl	_Z15readMPU6000Gyrov
  49:../Libraries/AQ_Gyroscope/Gyroscope_MPU6000.h **** 
  50:../Libraries/AQ_Gyroscope/Gyroscope_MPU6000.h ****   int gyroADC[3];
  51:../Libraries/AQ_Gyroscope/Gyroscope_MPU6000.h ****   gyroADC[XAXIS] = (gyroRaw[XAXIS]=MPU6000.data.gyro.x)  - gyroZero[XAXIS];
 1703              		.loc 11 51 0
 1704 0008 1A4A     		ldr	r2, .L103
 1705 000a 1B49     		ldr	r1, .L103+4
 1706 000c B2F90850 		ldrsh	r5, [r2, #8]
 1707 0010 1A4B     		ldr	r3, .L103+8
 1708 0012 0C68     		ldr	r4, [r1, #0]
 1709 0014 1D60     		str	r5, [r3, #0]
 1710 0016 2C1B     		subs	r4, r5, r4
  52:../Libraries/AQ_Gyroscope/Gyroscope_MPU6000.h ****   gyroADC[YAXIS] = gyroZero[YAXIS] - (gyroRaw[YAXIS]=MPU6000.data.gyro.y);
 1711              		.loc 11 52 0
 1712 0018 B2F90A00 		ldrsh	r0, [r2, #10]
 1713 001c 4D68     		ldr	r5, [r1, #4]
  53:../Libraries/AQ_Gyroscope/Gyroscope_MPU6000.h ****   gyroADC[ZAXIS] = gyroZero[ZAXIS] - (gyroRaw[ZAXIS]=MPU6000.data.gyro.z);
 1714              		.loc 11 53 0
 1715 001e B2F90C20 		ldrsh	r2, [r2, #12]
 1716 0022 8968     		ldr	r1, [r1, #8]
  52:../Libraries/AQ_Gyroscope/Gyroscope_MPU6000.h ****   gyroADC[YAXIS] = gyroZero[YAXIS] - (gyroRaw[YAXIS]=MPU6000.data.gyro.y);
 1717              		.loc 11 52 0
 1718 0024 5860     		str	r0, [r3, #4]
 1719              		.loc 11 53 0
 1720 0026 9A60     		str	r2, [r3, #8]
  52:../Libraries/AQ_Gyroscope/Gyroscope_MPU6000.h ****   gyroADC[YAXIS] = gyroZero[YAXIS] - (gyroRaw[YAXIS]=MPU6000.data.gyro.y);
 1721              		.loc 11 52 0
 1722 0028 281A     		subs	r0, r5, r0
 1723              		.loc 11 53 0
 1724 002a 8A1A     		subs	r2, r1, r2
 1725              	.LBB45:
  54:../Libraries/AQ_Gyroscope/Gyroscope_MPU6000.h **** 
  55:../Libraries/AQ_Gyroscope/Gyroscope_MPU6000.h ****   for (byte axis = 0; axis <= ZAXIS; axis++) {
  56:../Libraries/AQ_Gyroscope/Gyroscope_MPU6000.h ****     gyroRate[axis] = gyroADC[axis] * gyroScaleFactor;
 1726              		.loc 11 56 0
 1727 002c 01EE904A 		fmsr	s3, r4	@ int
 1728 0030 1349     		ldr	r1, .L103+12
 1729 0032 144B     		ldr	r3, .L103+16
 1730              	.LBE45:
  51:../Libraries/AQ_Gyroscope/Gyroscope_MPU6000.h ****   gyroADC[XAXIS] = (gyroRaw[XAXIS]=MPU6000.data.gyro.x)  - gyroZero[XAXIS];
 1731              		.loc 11 51 0
 1732 0034 0194     		str	r4, [sp, #4]
 1733              	.LBB46:
 1734              		.loc 11 56 0
 1735 0036 00EE900A 		fmsr	s1, r0	@ int
 1736 003a 06EE902A 		fmsr	s13, r2	@ int
 1737 003e D1ED007A 		flds	s15, [r1, #0]
 1738 0042 B8EEE11A 		fsitos	s2, s3
 1739 0046 B8EEE00A 		fsitos	s0, s1
 1740 004a B8EEE67A 		fsitos	s14, s13
 1741 004e 21EE271A 		fmuls	s2, s2, s15
 1742 0052 20EE270A 		fmuls	s0, s0, s15
 1743 0056 67EE277A 		fmuls	s15, s14, s15
 1744              	.LBE46:
  52:../Libraries/AQ_Gyroscope/Gyroscope_MPU6000.h ****   gyroADC[YAXIS] = gyroZero[YAXIS] - (gyroRaw[YAXIS]=MPU6000.data.gyro.y);
 1745              		.loc 11 52 0
 1746 005a 0290     		str	r0, [sp, #8]
  53:../Libraries/AQ_Gyroscope/Gyroscope_MPU6000.h ****   gyroADC[ZAXIS] = gyroZero[ZAXIS] - (gyroRaw[ZAXIS]=MPU6000.data.gyro.z);
 1747              		.loc 11 53 0
 1748 005c 0392     		str	r2, [sp, #12]
 1749              	.LVL97:
 1750              	.LBB47:
 1751              		.loc 11 56 0
 1752 005e 83ED001A 		fsts	s2, [r3, #0]
 1753              	.LVL98:
 1754 0062 83ED010A 		fsts	s0, [r3, #4]
 1755              	.LVL99:
 1756 0066 C3ED027A 		fsts	s15, [r3, #8]
 1757              	.LVL100:
 1758              	.LBE47:
 1759              	.LBE44:
  57:../Libraries/AQ_Gyroscope/Gyroscope_MPU6000.h ****   }
  58:../Libraries/AQ_Gyroscope/Gyroscope_MPU6000.h **** 
  59:../Libraries/AQ_Gyroscope/Gyroscope_MPU6000.h ****   gyroUpdateHeading();
  60:../Libraries/AQ_Gyroscope/Gyroscope_MPU6000.h **** }
 1760              		.loc 11 60 0
 1761 006a 05B0     		add	sp, sp, #20
 1762 006c BDE83040 		pop	{r4, r5, lr}
 1763              	.LBB48:
  59:../Libraries/AQ_Gyroscope/Gyroscope_MPU6000.h ****   gyroUpdateHeading();
 1764              		.loc 11 59 0
 1765 0070 FFF7FEBF 		b	_Z17gyroUpdateHeadingv
 1766              	.L104:
 1767              		.align	2
 1768              	.L103:
 1769 0074 00000000 		.word	.LANCHOR14
 1770 0078 00000000 		.word	.LANCHOR23
 1771 007c 00000000 		.word	.LANCHOR22
 1772 0080 00000000 		.word	.LANCHOR18
 1773 0084 00000000 		.word	.LANCHOR19
 1774              	.LBE48:
 1775              		.cfi_endproc
 1776              	.LFE151:
 1778              		.section	.text._Z14measureGyroSumv,"ax",%progbits
 1779              		.align	1
 1780              		.global	_Z14measureGyroSumv
 1781              		.thumb
 1782              		.thumb_func
 1784              	_Z14measureGyroSumv:
 1785              	.LFB152:
  61:../Libraries/AQ_Gyroscope/Gyroscope_MPU6000.h **** 
  62:../Libraries/AQ_Gyroscope/Gyroscope_MPU6000.h **** void measureGyroSum() {
 1786              		.loc 11 62 0
 1787              		.cfi_startproc
 1788              		@ args = 0, pretend = 0, frame = 0
 1789              		@ frame_needed = 0, uses_anonymous_args = 0
 1790 0000 10B5     		push	{r4, lr}
 1791              	.LCFI17:
 1792              		.cfi_def_cfa_offset 8
 1793              		.cfi_offset 14, -4
 1794              		.cfi_offset 4, -8
  63:../Libraries/AQ_Gyroscope/Gyroscope_MPU6000.h ****   readMPU6000Gyro();
 1795              		.loc 11 63 0
 1796 0002 FFF7FEFF 		bl	_Z15readMPU6000Gyrov
  64:../Libraries/AQ_Gyroscope/Gyroscope_MPU6000.h ****   gyroSample[XAXIS] += (gyroRaw[XAXIS]=MPU6000.data.gyro.x);
 1797              		.loc 11 64 0
 1798 0006 0D4B     		ldr	r3, .L106
 1799 0008 0D49     		ldr	r1, .L106+4
 1800 000a 1C68     		ldr	r4, [r3, #0]
 1801 000c B1F90800 		ldrsh	r0, [r1, #8]
 1802 0010 0C4A     		ldr	r2, .L106+8
 1803 0012 2418     		adds	r4, r4, r0
 1804 0014 1C60     		str	r4, [r3, #0]
 1805 0016 1060     		str	r0, [r2, #0]
  65:../Libraries/AQ_Gyroscope/Gyroscope_MPU6000.h ****   gyroSample[YAXIS] += (gyroRaw[YAXIS]=MPU6000.data.gyro.y);
 1806              		.loc 11 65 0
 1807 0018 5C68     		ldr	r4, [r3, #4]
 1808 001a B1F90A00 		ldrsh	r0, [r1, #10]
  66:../Libraries/AQ_Gyroscope/Gyroscope_MPU6000.h ****   gyroSample[ZAXIS] += (gyroRaw[ZAXIS]=MPU6000.data.gyro.z);
 1809              		.loc 11 66 0
 1810 001e B1F90C10 		ldrsh	r1, [r1, #12]
  65:../Libraries/AQ_Gyroscope/Gyroscope_MPU6000.h ****   gyroSample[YAXIS] += (gyroRaw[YAXIS]=MPU6000.data.gyro.y);
 1811              		.loc 11 65 0
 1812 0022 5060     		str	r0, [r2, #4]
 1813 0024 2018     		adds	r0, r4, r0
 1814 0026 5860     		str	r0, [r3, #4]
 1815              		.loc 11 66 0
 1816 0028 9868     		ldr	r0, [r3, #8]
 1817 002a 9160     		str	r1, [r2, #8]
 1818 002c 4118     		adds	r1, r0, r1
 1819 002e 9960     		str	r1, [r3, #8]
  67:../Libraries/AQ_Gyroscope/Gyroscope_MPU6000.h **** 
  68:../Libraries/AQ_Gyroscope/Gyroscope_MPU6000.h ****   gyroSampleCount++;
 1820              		.loc 11 68 0
 1821 0030 054B     		ldr	r3, .L106+12
 1822 0032 1878     		ldrb	r0, [r3, #0]	@ zero_extendqisi2
 1823 0034 421C     		adds	r2, r0, #1
 1824 0036 1A70     		strb	r2, [r3, #0]
  69:../Libraries/AQ_Gyroscope/Gyroscope_MPU6000.h **** }
 1825              		.loc 11 69 0
 1826 0038 10BD     		pop	{r4, pc}
 1827              	.L107:
 1828 003a 00BF     		.align	2
 1829              	.L106:
 1830 003c 00000000 		.word	.LANCHOR24
 1831 0040 00000000 		.word	.LANCHOR14
 1832 0044 00000000 		.word	.LANCHOR22
 1833 0048 00000000 		.word	.LANCHOR25
 1834              		.cfi_endproc
 1835              	.LFE152:
 1837              		.section	.text._Z16evaluateGyroRatev,"ax",%progbits
 1838              		.align	1
 1839              		.global	_Z16evaluateGyroRatev
 1840              		.thumb
 1841              		.thumb_func
 1843              	_Z16evaluateGyroRatev:
 1844              	.LFB153:
  70:../Libraries/AQ_Gyroscope/Gyroscope_MPU6000.h **** 
  71:../Libraries/AQ_Gyroscope/Gyroscope_MPU6000.h **** void evaluateGyroRate() {
 1845              		.loc 11 71 0
 1846              		.cfi_startproc
 1847              		@ args = 0, pretend = 0, frame = 16
 1848              		@ frame_needed = 0, uses_anonymous_args = 0
 1849 0000 7FB5     		push	{r0, r1, r2, r3, r4, r5, r6, lr}
 1850              	.LCFI18:
 1851              		.cfi_def_cfa_offset 32
 1852              		.cfi_offset 14, -4
 1853              		.cfi_offset 6, -8
 1854              		.cfi_offset 5, -12
 1855              		.cfi_offset 4, -16
 1856              		.cfi_offset 3, -20
 1857              		.cfi_offset 2, -24
 1858              		.cfi_offset 1, -28
 1859              		.cfi_offset 0, -32
 1860              	.LBB49:
  72:../Libraries/AQ_Gyroscope/Gyroscope_MPU6000.h ****   int gyroADC[3];
  73:../Libraries/AQ_Gyroscope/Gyroscope_MPU6000.h ****   gyroADC[XAXIS] = (gyroSample[XAXIS] / gyroSampleCount) - gyroZero[XAXIS];
 1861              		.loc 11 73 0
 1862 0002 1F4B     		ldr	r3, .L109
 1863 0004 1F4D     		ldr	r5, .L109+4
 1864 0006 1A68     		ldr	r2, [r3, #0]
 1865 0008 95F800C0 		ldrb	ip, [r5, #0]	@ zero_extendqisi2
  74:../Libraries/AQ_Gyroscope/Gyroscope_MPU6000.h ****   gyroADC[YAXIS] = gyroZero[YAXIS] - (gyroSample[YAXIS] / gyroSampleCount);
 1866              		.loc 11 74 0
 1867 000c 5968     		ldr	r1, [r3, #4]
  73:../Libraries/AQ_Gyroscope/Gyroscope_MPU6000.h ****   gyroADC[XAXIS] = (gyroSample[XAXIS] / gyroSampleCount) - gyroZero[XAXIS];
 1868              		.loc 11 73 0
 1869 000e 92FBFCF4 		sdiv	r4, r2, ip
 1870 0012 1D4A     		ldr	r2, .L109+8
 1871 0014 1068     		ldr	r0, [r2, #0]
 1872              		.loc 11 74 0
 1873 0016 5668     		ldr	r6, [r2, #4]
  73:../Libraries/AQ_Gyroscope/Gyroscope_MPU6000.h ****   gyroADC[XAXIS] = (gyroSample[XAXIS] / gyroSampleCount) - gyroZero[XAXIS];
 1874              		.loc 11 73 0
 1875 0018 241A     		subs	r4, r4, r0
 1876              		.loc 11 74 0
 1877 001a 91FBFCF0 		sdiv	r0, r1, ip
 1878 001e 301A     		subs	r0, r6, r0
  75:../Libraries/AQ_Gyroscope/Gyroscope_MPU6000.h ****   gyroADC[ZAXIS] = gyroZero[ZAXIS] - (gyroSample[ZAXIS] / gyroSampleCount);
 1879              		.loc 11 75 0
 1880 0020 9E68     		ldr	r6, [r3, #8]
 1881 0022 9168     		ldr	r1, [r2, #8]
  73:../Libraries/AQ_Gyroscope/Gyroscope_MPU6000.h ****   gyroADC[XAXIS] = (gyroSample[XAXIS] / gyroSampleCount) - gyroZero[XAXIS];
 1882              		.loc 11 73 0
 1883 0024 0194     		str	r4, [sp, #4]
 1884              		.loc 11 75 0
 1885 0026 96FBFCFC 		sdiv	ip, r6, ip
  76:../Libraries/AQ_Gyroscope/Gyroscope_MPU6000.h **** 
  77:../Libraries/AQ_Gyroscope/Gyroscope_MPU6000.h ****   gyroSample[XAXIS] = 0;
 1886              		.loc 11 77 0
 1887 002a 0022     		movs	r2, #0
  75:../Libraries/AQ_Gyroscope/Gyroscope_MPU6000.h ****   gyroADC[ZAXIS] = gyroZero[ZAXIS] - (gyroSample[ZAXIS] / gyroSampleCount);
 1888              		.loc 11 75 0
 1889 002c CCEB0101 		rsb	r1, ip, r1
 1890              		.loc 11 77 0
 1891 0030 1A60     		str	r2, [r3, #0]
  78:../Libraries/AQ_Gyroscope/Gyroscope_MPU6000.h ****   gyroSample[YAXIS] = 0;
 1892              		.loc 11 78 0
 1893 0032 5A60     		str	r2, [r3, #4]
  79:../Libraries/AQ_Gyroscope/Gyroscope_MPU6000.h ****   gyroSample[ZAXIS] = 0;
 1894              		.loc 11 79 0
 1895 0034 9A60     		str	r2, [r3, #8]
  80:../Libraries/AQ_Gyroscope/Gyroscope_MPU6000.h ****   gyroSampleCount = 0;
 1896              		.loc 11 80 0
 1897 0036 2A70     		strb	r2, [r5, #0]
 1898              	.LVL101:
 1899              	.LBB50:
  81:../Libraries/AQ_Gyroscope/Gyroscope_MPU6000.h **** 
  82:../Libraries/AQ_Gyroscope/Gyroscope_MPU6000.h ****   for (byte axis = 0; axis <= ZAXIS; axis++) {
  83:../Libraries/AQ_Gyroscope/Gyroscope_MPU6000.h ****     gyroRate[axis] = gyroADC[axis] * gyroScaleFactor;
 1900              		.loc 11 83 0
 1901 0038 01EE904A 		fmsr	s3, r4	@ int
 1902 003c 134A     		ldr	r2, .L109+12
 1903 003e 144B     		ldr	r3, .L109+16
 1904              	.LBE50:
  74:../Libraries/AQ_Gyroscope/Gyroscope_MPU6000.h ****   gyroADC[YAXIS] = gyroZero[YAXIS] - (gyroSample[YAXIS] / gyroSampleCount);
 1905              		.loc 11 74 0
 1906 0040 0290     		str	r0, [sp, #8]
 1907              	.LBB51:
 1908              		.loc 11 83 0
 1909 0042 00EE900A 		fmsr	s1, r0	@ int
 1910 0046 06EE901A 		fmsr	s13, r1	@ int
 1911 004a D2ED007A 		flds	s15, [r2, #0]
 1912 004e B8EEE11A 		fsitos	s2, s3
 1913 0052 B8EEE00A 		fsitos	s0, s1
 1914 0056 B8EEE67A 		fsitos	s14, s13
 1915 005a 21EE271A 		fmuls	s2, s2, s15
 1916 005e 20EE270A 		fmuls	s0, s0, s15
 1917 0062 67EE277A 		fmuls	s15, s14, s15
 1918              	.LBE51:
  75:../Libraries/AQ_Gyroscope/Gyroscope_MPU6000.h ****   gyroADC[ZAXIS] = gyroZero[ZAXIS] - (gyroSample[ZAXIS] / gyroSampleCount);
 1919              		.loc 11 75 0
 1920 0066 0391     		str	r1, [sp, #12]
 1921              	.LBB52:
 1922              		.loc 11 83 0
 1923 0068 83ED001A 		fsts	s2, [r3, #0]
 1924              	.LVL102:
 1925 006c 83ED010A 		fsts	s0, [r3, #4]
 1926              	.LVL103:
 1927 0070 C3ED027A 		fsts	s15, [r3, #8]
 1928              	.LVL104:
 1929              	.LBE52:
 1930              	.LBE49:
  84:../Libraries/AQ_Gyroscope/Gyroscope_MPU6000.h ****   }
  85:../Libraries/AQ_Gyroscope/Gyroscope_MPU6000.h **** 
  86:../Libraries/AQ_Gyroscope/Gyroscope_MPU6000.h ****   gyroUpdateHeading();
  87:../Libraries/AQ_Gyroscope/Gyroscope_MPU6000.h **** }
 1931              		.loc 11 87 0
 1932 0074 04B0     		add	sp, sp, #16
 1933 0076 BDE87040 		pop	{r4, r5, r6, lr}
 1934              	.LBB53:
  86:../Libraries/AQ_Gyroscope/Gyroscope_MPU6000.h ****   gyroUpdateHeading();
 1935              		.loc 11 86 0
 1936 007a FFF7FEBF 		b	_Z17gyroUpdateHeadingv
 1937              	.L110:
 1938 007e 00BF     		.align	2
 1939              	.L109:
 1940 0080 00000000 		.word	.LANCHOR24
 1941 0084 00000000 		.word	.LANCHOR25
 1942 0088 00000000 		.word	.LANCHOR23
 1943 008c 00000000 		.word	.LANCHOR18
 1944 0090 00000000 		.word	.LANCHOR19
 1945              	.LBE53:
 1946              		.cfi_endproc
 1947              	.LFE153:
 1949              		.section	.text._Z13calibrateGyrov,"ax",%progbits
 1950              		.align	1
 1951              		.global	_Z13calibrateGyrov
 1952              		.thumb
 1953              		.thumb_func
 1955              	_Z13calibrateGyrov:
 1956              	.LFB154:
  88:../Libraries/AQ_Gyroscope/Gyroscope_MPU6000.h **** 
  89:../Libraries/AQ_Gyroscope/Gyroscope_MPU6000.h **** 
  90:../Libraries/AQ_Gyroscope/Gyroscope_MPU6000.h **** boolean calibrateGyro() {
 1957              		.loc 11 90 0
 1958              		.cfi_startproc
 1959              		@ args = 0, pretend = 0, frame = 200
 1960              		@ frame_needed = 0, uses_anonymous_args = 0
 1961 0000 70B5     		push	{r4, r5, r6, lr}
 1962              	.LCFI19:
 1963              		.cfi_def_cfa_offset 16
 1964              		.cfi_offset 14, -4
 1965              		.cfi_offset 6, -8
 1966              		.cfi_offset 5, -12
 1967              		.cfi_offset 4, -16
 1968 0002 B2B0     		sub	sp, sp, #200
 1969              	.LCFI20:
 1970              		.cfi_def_cfa_offset 216
 1971              	.LBB54:
  91:../Libraries/AQ_Gyroscope/Gyroscope_MPU6000.h ****   
  92:../Libraries/AQ_Gyroscope/Gyroscope_MPU6000.h ****   int findZero[FINDZERO];
  93:../Libraries/AQ_Gyroscope/Gyroscope_MPU6000.h ****   int diff = 0; 
 1972              		.loc 11 93 0
 1973 0004 0024     		movs	r4, #0
 1974 0006 3194     		str	r4, [sp, #196]
 1975              	.LVL105:
 1976 0008 154D     		ldr	r5, .L122
 1977 000a 22E0     		b	.L112
 1978              	.LVL106:
 1979              	.L116:
 1980              	.LBB55:
 1981              	.LBB56:
 1982              	.LBB57:
  94:../Libraries/AQ_Gyroscope/Gyroscope_MPU6000.h ****   for (byte axis = 0; axis < 3; axis++) {
  95:../Libraries/AQ_Gyroscope/Gyroscope_MPU6000.h ****     for (int i=0; i<FINDZERO; i++) {
  96:../Libraries/AQ_Gyroscope/Gyroscope_MPU6000.h ****       readMPU6000Sensors();
 1983              		.loc 11 96 0
 1984 000c FFF7FEFF 		bl	_Z18readMPU6000Sensorsv
 1985 0010 144B     		ldr	r3, .L122+4
  97:../Libraries/AQ_Gyroscope/Gyroscope_MPU6000.h ****       if(axis == XAXIS) {
 1986              		.loc 11 97 0
 1987 0012 14B9     		cbnz	r4, .L113
  98:../Libraries/AQ_Gyroscope/Gyroscope_MPU6000.h ****     	findZero[i] = MPU6000.data.gyro.x;
 1988              		.loc 11 98 0
 1989 0014 B3F90830 		ldrsh	r3, [r3, #8]
 1990 0018 05E0     		b	.L121
 1991              	.L113:
  99:../Libraries/AQ_Gyroscope/Gyroscope_MPU6000.h ****       } 
 100:../Libraries/AQ_Gyroscope/Gyroscope_MPU6000.h **** 	  else if(axis == YAXIS) {
 1992              		.loc 11 100 0
 1993 001a 012C     		cmp	r4, #1
 101:../Libraries/AQ_Gyroscope/Gyroscope_MPU6000.h ****     	findZero[i] = MPU6000.data.gyro.y;
 1994              		.loc 11 101 0
 1995 001c 0CBF     		ite	eq
 1996 001e B3F90A30 		ldrsheq	r3, [r3, #10]
 102:../Libraries/AQ_Gyroscope/Gyroscope_MPU6000.h ****       } 
 103:../Libraries/AQ_Gyroscope/Gyroscope_MPU6000.h **** 	  else {
 104:../Libraries/AQ_Gyroscope/Gyroscope_MPU6000.h ****     	findZero[i] = MPU6000.data.gyro.z;
 1997              		.loc 11 104 0
 1998 0022 B3F90C30 		ldrshne	r3, [r3, #12]
 1999              	.L121:
 2000 0026 4DF80630 		str	r3, [sp, r6]
 105:../Libraries/AQ_Gyroscope/Gyroscope_MPU6000.h ****       }
 106:../Libraries/AQ_Gyroscope/Gyroscope_MPU6000.h ****       delay(10);
 2001              		.loc 11 106 0
 2002 002a 0A20     		movs	r0, #10
 2003 002c 0436     		adds	r6, r6, #4
 2004 002e FFF7FEFF 		bl	_Z5delaym
  95:../Libraries/AQ_Gyroscope/Gyroscope_MPU6000.h ****     for (int i=0; i<FINDZERO; i++) {
 2005              		.loc 11 95 0
 2006 0032 C42E     		cmp	r6, #196
 2007 0034 EAD1     		bne	.L116
 2008              	.LBE57:
 107:../Libraries/AQ_Gyroscope/Gyroscope_MPU6000.h ****     }
 108:../Libraries/AQ_Gyroscope/Gyroscope_MPU6000.h ****     int tmp = findMedianIntWithDiff(findZero, FINDZERO, &diff);
 2009              		.loc 11 108 0
 2010 0036 3121     		movs	r1, #49
 2011 0038 6846     		mov	r0, sp
 2012 003a 31AA     		add	r2, sp, #196
 2013 003c FFF7FEFF 		bl	_Z21findMedianIntWithDiffPiiS_
 2014              	.LVL107:
 109:../Libraries/AQ_Gyroscope/Gyroscope_MPU6000.h **** 	if (diff <= GYRO_CALIBRATION_TRESHOLD) { 
 2015              		.loc 11 109 0
 2016 0040 319B     		ldr	r3, [sp, #196]
 2017 0042 192B     		cmp	r3, #25
 2018 0044 07DC     		bgt	.L118
 2019              	.LBE56:
  94:../Libraries/AQ_Gyroscope/Gyroscope_MPU6000.h ****   for (byte axis = 0; axis < 3; axis++) {
 2020              		.loc 11 94 0
 2021 0046 0134     		adds	r4, r4, #1
 2022 0048 E4B2     		uxtb	r4, r4
 2023              	.LVL108:
 2024 004a 032C     		cmp	r4, #3
 2025              	.LBB58:
 110:../Libraries/AQ_Gyroscope/Gyroscope_MPU6000.h **** 	  gyroZero[axis] = tmp;
 2026              		.loc 11 110 0
 2027 004c 45F8040F 		str	r0, [r5, #4]!
 2028              	.LBE58:
  94:../Libraries/AQ_Gyroscope/Gyroscope_MPU6000.h ****   for (byte axis = 0; axis < 3; axis++) {
 2029              		.loc 11 94 0
 2030 0050 03D0     		beq	.L119
 2031              	.LVL109:
 2032              	.L112:
 2033              	.LBE55:
 2034              	.LBE54:
  90:../Libraries/AQ_Gyroscope/Gyroscope_MPU6000.h **** boolean calibrateGyro() {
 2035              		.loc 11 90 0 discriminator 1
 2036 0052 0026     		movs	r6, #0
 2037 0054 DAE7     		b	.L116
 2038              	.LVL110:
 2039              	.L118:
 2040              	.LBB61:
 2041              	.LBB60:
 2042              	.LBB59:
 111:../Libraries/AQ_Gyroscope/Gyroscope_MPU6000.h **** 	} 
 112:../Libraries/AQ_Gyroscope/Gyroscope_MPU6000.h **** 	else {
 113:../Libraries/AQ_Gyroscope/Gyroscope_MPU6000.h **** 		return false; //Calibration failed.
 2043              		.loc 11 113 0
 2044 0056 0020     		movs	r0, #0
 2045              	.LVL111:
 2046 0058 00E0     		b	.L117
 2047              	.LVL112:
 2048              	.L119:
 2049              	.LBE59:
 114:../Libraries/AQ_Gyroscope/Gyroscope_MPU6000.h **** 	}
 115:../Libraries/AQ_Gyroscope/Gyroscope_MPU6000.h ****   }
 116:../Libraries/AQ_Gyroscope/Gyroscope_MPU6000.h ****   return true;
 2050              		.loc 11 116 0
 2051 005a 0120     		movs	r0, #1
 2052              	.LVL113:
 2053              	.L117:
 2054              	.LBE60:
 2055              	.LBE61:
 117:../Libraries/AQ_Gyroscope/Gyroscope_MPU6000.h **** }
 2056              		.loc 11 117 0
 2057 005c 32B0     		add	sp, sp, #200
 2058 005e 70BD     		pop	{r4, r5, r6, pc}
 2059              	.L123:
 2060              		.align	2
 2061              	.L122:
 2062 0060 FCFFFFFF 		.word	.LANCHOR23-4
 2063 0064 00000000 		.word	.LANCHOR14
 2064              		.cfi_endproc
 2065              	.LFE154:
 2067              		.section	.text._Z15initializeAccelv,"ax",%progbits
 2068              		.align	1
 2069              		.global	_Z15initializeAccelv
 2070              		.thumb
 2071              		.thumb_func
 2073              	_Z15initializeAccelv:
 2074              	.LFB155:
 2075              		.file 12 "../Libraries/AQ_Accelerometer/Accelerometer_MPU6000.h"
   1:../Libraries/AQ_Accelerometer/Accelerometer_MPU6000.h **** /*
   2:../Libraries/AQ_Accelerometer/Accelerometer_MPU6000.h ****   AeroQuad v3.0 - May 2011
   3:../Libraries/AQ_Accelerometer/Accelerometer_MPU6000.h ****   www.AeroQuad.com
   4:../Libraries/AQ_Accelerometer/Accelerometer_MPU6000.h ****   Copyright (c) 2011 Ted Carancho.  All rights reserved.
   5:../Libraries/AQ_Accelerometer/Accelerometer_MPU6000.h ****   An Open Source Arduino based multicopter.
   6:../Libraries/AQ_Accelerometer/Accelerometer_MPU6000.h **** 
   7:../Libraries/AQ_Accelerometer/Accelerometer_MPU6000.h ****   This program is free software: you can redistribute it and/or modify
   8:../Libraries/AQ_Accelerometer/Accelerometer_MPU6000.h ****   it under the terms of the GNU General Public License as published by
   9:../Libraries/AQ_Accelerometer/Accelerometer_MPU6000.h ****   the Free Software Foundation, either version 3 of the License, or
  10:../Libraries/AQ_Accelerometer/Accelerometer_MPU6000.h ****   (at your option) any later version.
  11:../Libraries/AQ_Accelerometer/Accelerometer_MPU6000.h **** 
  12:../Libraries/AQ_Accelerometer/Accelerometer_MPU6000.h ****   This program is distributed in the hope that it will be useful,
  13:../Libraries/AQ_Accelerometer/Accelerometer_MPU6000.h ****   but WITHOUT ANY WARRANTY; without even the implied warranty of
  14:../Libraries/AQ_Accelerometer/Accelerometer_MPU6000.h ****   MERCHANTABILITY or FITNESS FOR A PARTICULAR PURPOSE. See the
  15:../Libraries/AQ_Accelerometer/Accelerometer_MPU6000.h ****   GNU General Public License for more details.
  16:../Libraries/AQ_Accelerometer/Accelerometer_MPU6000.h **** 
  17:../Libraries/AQ_Accelerometer/Accelerometer_MPU6000.h ****   You should have received a copy of the GNU General Public License
  18:../Libraries/AQ_Accelerometer/Accelerometer_MPU6000.h ****   along with this program. If not, see <http://www.gnu.org/licenses/>.
  19:../Libraries/AQ_Accelerometer/Accelerometer_MPU6000.h **** */
  20:../Libraries/AQ_Accelerometer/Accelerometer_MPU6000.h **** 
  21:../Libraries/AQ_Accelerometer/Accelerometer_MPU6000.h **** #ifndef _AEROQUAD_ACCELEROMETER_MPU6000_COMMON_H_
  22:../Libraries/AQ_Accelerometer/Accelerometer_MPU6000.h **** #define _AEROQUAD_ACCELEROMETER_MPU6000_COMMON_H_
  23:../Libraries/AQ_Accelerometer/Accelerometer_MPU6000.h **** 
  24:../Libraries/AQ_Accelerometer/Accelerometer_MPU6000.h **** #include <Platform_MPU6000.h>
  25:../Libraries/AQ_Accelerometer/Accelerometer_MPU6000.h **** #include <Accelerometer.h>
  26:../Libraries/AQ_Accelerometer/Accelerometer_MPU6000.h **** 
  27:../Libraries/AQ_Accelerometer/Accelerometer_MPU6000.h **** void initializeAccel() {
 2076              		.loc 12 27 0
 2077              		.cfi_startproc
 2078              		@ args = 0, pretend = 0, frame = 0
 2079              		@ frame_needed = 0, uses_anonymous_args = 0
 2080              		@ link register save eliminated.
  28:../Libraries/AQ_Accelerometer/Accelerometer_MPU6000.h ****   initializeMPU6000Sensors();
  29:../Libraries/AQ_Accelerometer/Accelerometer_MPU6000.h **** }
 2081              		.loc 12 29 0
  28:../Libraries/AQ_Accelerometer/Accelerometer_MPU6000.h ****   initializeMPU6000Sensors();
 2082              		.loc 12 28 0
 2083 0000 FFF7FEBF 		b	_Z24initializeMPU6000Sensorsv
 2084              		.cfi_endproc
 2085              	.LFE155:
 2087              		.section	.text._Z12measureAccelv,"ax",%progbits
 2088              		.align	1
 2089              		.global	_Z12measureAccelv
 2090              		.thumb
 2091              		.thumb_func
 2093              	_Z12measureAccelv:
 2094              	.LFB156:
  30:../Libraries/AQ_Accelerometer/Accelerometer_MPU6000.h **** 
  31:../Libraries/AQ_Accelerometer/Accelerometer_MPU6000.h **** 
  32:../Libraries/AQ_Accelerometer/Accelerometer_MPU6000.h **** void measureAccel() {
 2095              		.loc 12 32 0
 2096              		.cfi_startproc
 2097              		@ args = 0, pretend = 0, frame = 0
 2098              		@ frame_needed = 0, uses_anonymous_args = 0
 2099 0000 10B5     		push	{r4, lr}
 2100              	.LCFI21:
 2101              		.cfi_def_cfa_offset 8
 2102              		.cfi_offset 14, -4
 2103              		.cfi_offset 4, -8
  33:../Libraries/AQ_Accelerometer/Accelerometer_MPU6000.h ****   readMPU6000Accel();
 2104              		.loc 12 33 0
 2105 0002 FFF7FEFF 		bl	_Z16readMPU6000Accelv
  34:../Libraries/AQ_Accelerometer/Accelerometer_MPU6000.h **** 
  35:../Libraries/AQ_Accelerometer/Accelerometer_MPU6000.h ****   meterPerSecSec[XAXIS] = MPU6000.data.accel.x * accelScaleFactor[XAXIS] + runTimeAccelBias[XAXIS];
 2106              		.loc 12 35 0
 2107 0006 1748     		ldr	r0, .L126
 2108 0008 1749     		ldr	r1, .L126+4
 2109 000a B0F90040 		ldrsh	r4, [r0, #0]
 2110 000e 174A     		ldr	r2, .L126+8
 2111 0010 174B     		ldr	r3, .L126+12
 2112 0012 04EE104A 		fmsr	s8, r4	@ int
  36:../Libraries/AQ_Accelerometer/Accelerometer_MPU6000.h ****   meterPerSecSec[YAXIS] = MPU6000.data.accel.y * accelScaleFactor[YAXIS] + runTimeAccelBias[YAXIS];
 2113              		.loc 12 36 0
 2114 0016 B0F90240 		ldrsh	r4, [r0, #2]
  37:../Libraries/AQ_Accelerometer/Accelerometer_MPU6000.h ****   meterPerSecSec[ZAXIS] = MPU6000.data.accel.z * accelScaleFactor[ZAXIS] + runTimeAccelBias[ZAXIS];
 2115              		.loc 12 37 0
 2116 001a B0F90400 		ldrsh	r0, [r0, #4]
  36:../Libraries/AQ_Accelerometer/Accelerometer_MPU6000.h ****   meterPerSecSec[YAXIS] = MPU6000.data.accel.y * accelScaleFactor[YAXIS] + runTimeAccelBias[YAXIS];
 2117              		.loc 12 36 0
 2118 001e 02EE104A 		fmsr	s4, r4	@ int
 2119              		.loc 12 37 0
 2120 0022 00EE100A 		fmsr	s0, r0	@ int
  35:../Libraries/AQ_Accelerometer/Accelerometer_MPU6000.h ****   meterPerSecSec[XAXIS] = MPU6000.data.accel.x * accelScaleFactor[XAXIS] + runTimeAccelBias[XAXIS];
 2121              		.loc 12 35 0
 2122 0026 B8EEC43A 		fsitos	s6, s8
 2123 002a D1ED003A 		flds	s7, [r1, #0]
 2124 002e D2ED002A 		flds	s5, [r2, #0]
  36:../Libraries/AQ_Accelerometer/Accelerometer_MPU6000.h ****   meterPerSecSec[YAXIS] = MPU6000.data.accel.y * accelScaleFactor[YAXIS] + runTimeAccelBias[YAXIS];
 2125              		.loc 12 36 0
 2126 0032 B8EEC21A 		fsitos	s2, s4
 2127 0036 D1ED011A 		flds	s3, [r1, #4]
 2128 003a D2ED010A 		flds	s1, [r2, #4]
 2129              		.loc 12 37 0
 2130 003e F8EEC06A 		fsitos	s13, s0
 2131 0042 91ED027A 		flds	s14, [r1, #8]
 2132 0046 D2ED027A 		flds	s15, [r2, #8]
  35:../Libraries/AQ_Accelerometer/Accelerometer_MPU6000.h ****   meterPerSecSec[XAXIS] = MPU6000.data.accel.x * accelScaleFactor[XAXIS] + runTimeAccelBias[XAXIS];
 2133              		.loc 12 35 0
 2134 004a 43EE232A 		fmacs	s5, s6, s7
  36:../Libraries/AQ_Accelerometer/Accelerometer_MPU6000.h ****   meterPerSecSec[YAXIS] = MPU6000.data.accel.y * accelScaleFactor[YAXIS] + runTimeAccelBias[YAXIS];
 2135              		.loc 12 36 0
 2136 004e 41EE210A 		fmacs	s1, s2, s3
 2137              		.loc 12 37 0
 2138 0052 46EE877A 		fmacs	s15, s13, s14
  35:../Libraries/AQ_Accelerometer/Accelerometer_MPU6000.h ****   meterPerSecSec[XAXIS] = MPU6000.data.accel.x * accelScaleFactor[XAXIS] + runTimeAccelBias[XAXIS];
 2139              		.loc 12 35 0
 2140 0056 C3ED002A 		fsts	s5, [r3, #0]
  36:../Libraries/AQ_Accelerometer/Accelerometer_MPU6000.h ****   meterPerSecSec[YAXIS] = MPU6000.data.accel.y * accelScaleFactor[YAXIS] + runTimeAccelBias[YAXIS];
 2141              		.loc 12 36 0
 2142 005a C3ED010A 		fsts	s1, [r3, #4]
 2143              		.loc 12 37 0
 2144 005e C3ED027A 		fsts	s15, [r3, #8]
  38:../Libraries/AQ_Accelerometer/Accelerometer_MPU6000.h **** }
 2145              		.loc 12 38 0
 2146 0062 10BD     		pop	{r4, pc}
 2147              	.L127:
 2148              		.align	2
 2149              	.L126:
 2150 0064 00000000 		.word	.LANCHOR14
 2151 0068 00000000 		.word	.LANCHOR27
 2152 006c 00000000 		.word	.LANCHOR28
 2153 0070 00000000 		.word	.LANCHOR26
 2154              		.cfi_endproc
 2155              	.LFE156:
 2157              		.section	.text._Z15measureAccelSumv,"ax",%progbits
 2158              		.align	1
 2159              		.global	_Z15measureAccelSumv
 2160              		.thumb
 2161              		.thumb_func
 2163              	_Z15measureAccelSumv:
 2164              	.LFB157:
  39:../Libraries/AQ_Accelerometer/Accelerometer_MPU6000.h **** 
  40:../Libraries/AQ_Accelerometer/Accelerometer_MPU6000.h **** void measureAccelSum() {
 2165              		.loc 12 40 0
 2166              		.cfi_startproc
 2167              		@ args = 0, pretend = 0, frame = 0
 2168              		@ frame_needed = 0, uses_anonymous_args = 0
 2169 0000 08B5     		push	{r3, lr}
 2170              	.LCFI22:
 2171              		.cfi_def_cfa_offset 8
 2172              		.cfi_offset 14, -4
 2173              		.cfi_offset 3, -8
  41:../Libraries/AQ_Accelerometer/Accelerometer_MPU6000.h ****   readMPU6000Accel();
 2174              		.loc 12 41 0
 2175 0002 FFF7FEFF 		bl	_Z16readMPU6000Accelv
  42:../Libraries/AQ_Accelerometer/Accelerometer_MPU6000.h ****   accelSample[XAXIS] += MPU6000.data.accel.x;
 2176              		.loc 12 42 0
 2177 0006 0C4B     		ldr	r3, .L129
 2178 0008 0C4A     		ldr	r2, .L129+4
 2179 000a 1868     		ldr	r0, [r3, #0]
 2180 000c B2F900C0 		ldrsh	ip, [r2, #0]
 2181 0010 00EB0C01 		add	r1, r0, ip
 2182 0014 1960     		str	r1, [r3, #0]
